CCS PCH C Compiler, Version 5.078, 43599               09-Nov-20 13:50

               Filename:   D:\Document\TTVXL\TH_VDK_PIC_N1_SANG_THU_2\WEEK6\521\521.lst

               ROM used:   3280 bytes (10%)
                           Largest free fragment is 29484
               RAM used:   125 (6%) at main() level
                           150 (7%) worst case
               Stack used: 6 locations (5 in main + 1 for interrupts)
               Stack size: 31

*
0000:  GOTO   0A18
*
0008:  MOVWF  04
000A:  MOVFF  FD8,05
000E:  MOVFF  FE0,06
0012:  MOVLB  0
0014:  MOVFF  FE9,0C
0018:  MOVFF  FEA,07
001C:  MOVFF  FE1,08
0020:  MOVFF  FE2,09
0024:  MOVFF  FD9,0A
0028:  MOVFF  FDA,0B
002C:  MOVFF  FF3,12
0030:  MOVFF  FF4,13
0034:  MOVFF  FFA,14
0038:  MOVFF  FF5,15
003C:  MOVFF  FF6,16
0040:  MOVFF  FF7,17
0044:  MOVFF  00,0E
0048:  MOVFF  01,0F
004C:  MOVFF  02,10
0050:  MOVFF  03,11
0054:  BTFSS  F9D.0
0056:  GOTO   0060
005A:  BTFSC  F9E.0
005C:  GOTO   00E8
0060:  MOVFF  0E,00
0064:  MOVFF  0F,01
0068:  MOVFF  10,02
006C:  MOVFF  11,03
0070:  MOVFF  0C,FE9
0074:  MOVFF  07,FEA
0078:  BSF    07.7
007A:  MOVFF  08,FE1
007E:  MOVFF  09,FE2
0082:  MOVFF  0A,FD9
0086:  MOVFF  0B,FDA
008A:  MOVFF  12,FF3
008E:  MOVFF  13,FF4
0092:  MOVFF  14,FFA
0096:  MOVFF  15,FF5
009A:  MOVFF  16,FF6
009E:  MOVFF  17,FF7
00A2:  MOVF   04,W
00A4:  MOVFF  06,FE0
00A8:  MOVFF  05,FD8
00AC:  RETFIE 0
.................... #include "TV_PICKIT2_SHIFT_1.c" 
.................... #include    <18f4550.h> 
.................... //////////// Standard Header file for the PIC18F4550 device //////////////// 
.................... /////////////////////////////////////////////////////////////////////////// 
.................... ////        (C) Copyright 1996, 2014 Custom Computer Services          //// 
.................... //// This source code may only be used by licensed users of the CCS C  //// 
.................... //// compiler.  This source code may only be distributed to other      //// 
.................... //// licensed users of the CCS C compiler.  No other use, reproduction //// 
.................... //// or distribution is permitted without written permission.          //// 
.................... //// Derivative programs created using this software in object code    //// 
.................... //// form are not restricted in any way.                               //// 
.................... /////////////////////////////////////////////////////////////////////////// 
.................... #device PIC18F4550 
00AE:  CLRF   FF7
00B0:  ADDLW  BE
00B2:  MOVWF  FF6
00B4:  MOVLW  00
00B6:  ADDWFC FF7,F
00B8:  TBLRD*+
00BA:  MOVF   FF5,W
00BC:  RETURN 0
00BE:  DATA C0,F9
00C0:  DATA A4,B0
00C2:  DATA 99,92
00C4:  DATA 82,F8
00C6:  DATA 80,90
00C8:  DATA 88,83
00CA:  DATA C6,A1
00CC:  DATA 86,8E
00CE:  DATA 7F,00
00D0:  CLRF   FF7
00D2:  ADDLW  E0
00D4:  MOVWF  FF6
00D6:  MOVLW  00
00D8:  ADDWFC FF7,F
00DA:  TBLRD*+
00DC:  MOVF   FF5,W
00DE:  RETURN 0
00E0:  DATA 7F,BF
00E2:  DATA DF,EF
00E4:  DATA F7,FB
00E6:  DATA FD,FE
*
0116:  MOVF   x7D,W
0118:  XORWF  x7E,W
011A:  ANDLW  80
011C:  MOVWF  x80
011E:  BTFSS  x7D.7
0120:  BRA    0126
0122:  COMF   x7D,F
0124:  INCF   x7D,F
0126:  BTFSS  x7E.7
0128:  BRA    012E
012A:  COMF   x7E,F
012C:  INCF   x7E,F
012E:  MOVF   x7E,W
0130:  CLRF   01
0132:  SUBWF  x7D,W
0134:  BC    013C
0136:  MOVFF  7D,00
013A:  BRA    0154
013C:  CLRF   00
013E:  MOVLW  08
0140:  MOVWF  x7F
0142:  RLCF   x7D,F
0144:  RLCF   00,F
0146:  MOVF   x7E,W
0148:  SUBWF  00,W
014A:  BTFSC  FD8.0
014C:  MOVWF  00
014E:  RLCF   01,F
0150:  DECFSZ x7F,F
0152:  BRA    0142
0154:  BTFSS  x80.7
0156:  BRA    015C
0158:  COMF   01,F
015A:  INCF   01,F
015C:  RETURN 0
*
042C:  CLRF   01
042E:  CLRF   02
0430:  CLRF   00
0432:  CLRF   03
0434:  MOVF   x84,W
0436:  BNZ   043C
0438:  MOVF   x83,W
043A:  BZ    046C
043C:  MOVLW  10
043E:  MOVWF  x85
0440:  BCF    FD8.0
0442:  RLCF   x81,F
0444:  RLCF   x82,F
0446:  RLCF   00,F
0448:  RLCF   03,F
044A:  MOVF   x84,W
044C:  SUBWF  03,W
044E:  BNZ   0454
0450:  MOVF   x83,W
0452:  SUBWF  00,W
0454:  BNC   0464
0456:  MOVF   x83,W
0458:  SUBWF  00,F
045A:  BTFSS  FD8.0
045C:  DECF   03,F
045E:  MOVF   x84,W
0460:  SUBWF  03,F
0462:  BSF    FD8.0
0464:  RLCF   01,F
0466:  RLCF   02,F
0468:  DECFSZ x85,F
046A:  BRA    0440
046C:  RETURN 0
....................  
.................... #list 
....................  
.................... #device     adc=10 
.................... #fuses      nowdt,put,hs,noprotect,nolvp,cpudiv1 
.................... #use        delay(clock=20000000) 
*
06FA:  CLRF   FEA
06FC:  MOVLW  82
06FE:  MOVWF  FE9
0700:  MOVF   FEF,W
0702:  BZ    071E
0704:  MOVLW  06
0706:  MOVWF  01
0708:  CLRF   00
070A:  DECFSZ 00,F
070C:  BRA    070A
070E:  DECFSZ 01,F
0710:  BRA    0708
0712:  MOVLW  7B
0714:  MOVWF  00
0716:  DECFSZ 00,F
0718:  BRA    0716
071A:  DECFSZ FEF,F
071C:  BRA    0704
071E:  GOTO   072C (RETURN)
.................... #use        i2c(master,slow,sda=pin_b0,scl=pin_b1) 
....................  
.................... //#use        rs232(baud=9600, xmit=pin_c6,rcv=pin_c7) 
.................... //nut nhan: 
.................... #define  bt0     pin_b5 
.................... #define  bt1     pin_b4 
.................... #define  bt2     pin_b3 
.................... #define  bt3     pin_b2 
....................  
.................... #define  on      bt0       //dk led don, motor 
.................... #define  off     bt1 
.................... #define  inv     bt2 
....................  
.................... #define  up      bt0    //dk led don 
.................... #define  dw      bt1 
.................... #define  clr     bt2 
.................... #define  mod     bt3 
....................  
.................... #define  stop    bt3 
....................  
.................... #define  on1     bt0      
.................... #define  off1    bt1 
.................... #define  on2     bt2        
.................... #define  off2    bt3 
....................  
....................  
.................... #define     trigger      pin_e2 
.................... #define     echo         pin_e1 
.................... //   ic74138_a    pin_b6   //output giai ma 2 sang 4 tich cuc muc 0 
.................... //   ic74138_b    pin_b7   //output giai ma 2 sang 4 tich cuc muc 0 
....................  
.................... //          encoder  pin_c0   //rc0/t13cki 
....................  
.................... //          cb_kc    pin_a2   //ra2/an2 
.................... //          pir      pin_a3   //ra3/an3 
.................... //          cbxung   pin_a4   //ra4/t0cki 
.................... //          ledthu   pin_a4   //ra4/t0cki//sw802 
....................  
.................... //          cb_kcsa_trigger  pin_e2   //re2/sdo  dung chung 
.................... //          cb_kcsa_rcho     pin_e1   //re1 
....................  
.................... //          cb_tcs3200_out    pin_e1   //re1 //cam bien mau tcs3200 
.................... //          cb_tcs3200_s0     b12      //lay tu mbi5026 
.................... //          cb_tcs3200_s1     b13      //lay tu mbi5026 
.................... //          cb_tcs3200_s2     b14      //lay tu mbi5026 
.................... //          cb_tcs3200_s3     b15      //lay tu mbi5026 
....................  
.................... //          cb_power  sw803 
.................... //          cb_gas      ain3_pcf8591t   //re1 
.................... //          cb_quang    ain2_pcf8591t    
.................... //          cb_lm35b    ain1_pcf8591t   //ra1/an1 
.................... //          cb_lm35a    ain0_pcf8591t   //re1/an0 
....................  
.................... //xxxxxxxxxxxxxxxxxxxxxxxxxxxxxxxxxxxxxxxxxxxxxxxxx 
.................... #define      enable_573a      pin_d1         //cs0 cua a 
.................... #define      enable_573b      pin_d0         //cs1 cua b 
.................... //xxxxxxxxxxxxxxxxxxxxxxxxxxxxxxxxxxxxxxxxxxxxxxxxx 
.................... #define      ssdo             pin_e2         //chung tat ca 
.................... #define      ssck             pin_e0         //chung tat ca 
.................... //xxxxxxxxxxxxxxxxxxxxxxxxxxxxxxxxxxxxxxxxxxxxxxxxx 
.................... #define      rck_4led7doan    pin_d7         //a - 4 byte 
.................... #define      g_4led7doan      pin_d6         //a - 4 byte 
.................... //xxxxxxxxxxxxxxxxxxxxxxxxxxxxxxxxxxxxxxxxxxxx     
.................... #define      rck_matranled    pin_d7         //b - 3 byte dao 
.................... #define      g_matranled      pin_d6         //b - 3 byte dao 
.................... //xxxxxxxxxxxxxxxxxxxxxxxxxxxxxxxxxxxxxxxxxxxxxxxxx 
.................... #define      rck_32led        pin_d5         //a - 4 byte 
.................... #define      g_32led          pin_d4         //a - 4 byte 
.................... //xxxxxxxxxxxxxxxxxxxxxxxxxxxxxxxxxxxxxxxxxxxx  
.................... #define      rck_8ledquet     pin_d5         //b - 2 byte dao 
.................... #define      g_8ledquet       pin_d4         //b - 2 byte dao 
.................... //xxxxxxxxxxxxxxxxxxxxxxxxxxxxxxxxxxxxxxxxxxxxxxxxx 
.................... #define      rck_lcd20x4      pin_d3         //a - 2 byte dao 
.................... #define      g_lcd20x4         pin_d2         //a - 2 byte dao 
.................... //xxxxxxxxxxxxxxxxxxxxxxxxxxxxxxxxxxxxxxxxxxxx  
.................... #define      rck_buzerelay    pin_d3     //b - 1 byte  
.................... #define      g_buzerelay      pin_d2         //b - 1 byte  
....................  
.................... void xuat_lcd20x4(unsigned int8 lcd_signal,lcd_ins_hthi); 
....................  
.................... void xuat_buzzer_relay(); 
.................... //xxxxxxxxxxxxxxxxxxxxxxxxxxxxxxxxxxxxxxxxxxxx    
.................... #define     chot_2_ic_74573_a_b  output_d(0xfc) 
....................  
.................... unsigned int8 tin_hieu_dk_74573_a; 
.................... #bit g_4a         = tin_hieu_dk_74573_a.6 
.................... #bit g_32a        = tin_hieu_dk_74573_a.4 
.................... #bit g_lcda       = tin_hieu_dk_74573_a.2 
.................... //xxxxxxxxxxxxxxxxxxxxxxxxxxxxxxxxxxxxxxxxxxxx          
.................... #define     mo_32_led_don        g_32a=0; //output_low(g_32led)  
.................... #define     tat_32_led_don       g_32a=1; //output_high(g_32led)  
.................... //xxxxxxxxxxxxxxxxxxxxxxxxxxxxxxxxxxxxxxxxxxxx          
.................... #define     mo_4_led_7doan       g_4a=0;  //output_low(g_4led7doan) 
.................... #define     tat_4_led_7doan      g_4a=1;  //output_high(g_4led7doan) 
.................... //xxxxxxxxxxxxxxxxxxxxxxxxxxxxxxxxxxxxxxxxxxxx  
.................... #define     mo_glcd_lcd           g_lcda=0;   //output_low(g_lcd20x4) 
.................... #define     tat_glcd_lcd          g_lcda=1;   // output_low(g_lcd20x4) 
....................  
.................... unsigned int8 tin_hieu_dk_74573_b;   
.................... #bit g_mtb        = tin_hieu_dk_74573_b.6 
.................... #bit g_8b         = tin_hieu_dk_74573_b.4 
.................... #bit g_rbdcb      = tin_hieu_dk_74573_b.2 
.................... //xxxxxxxxxxxxxxxxxxxxxxxxxxxxxxxxxxxxxxxxxxxx  
.................... #define     mo_led_matran        g_mtb=0; //output_low(g_matranled) 
.................... #define     tat_led_matran       g_mtb=1; //output_low(g_matranled) 
.................... //xxxxxxxxxxxxxxxxxxxxxxxxxxxxxxxxxxxxxxxxxxxx        
.................... #define     mo_8_led_quet        g_8b=0;  //output_low(g_8ledquet) 
.................... #define     tat_8_led_quet       g_8b=1;  //output_low(g_8ledquet) 
.................... //xxxxxxxxxxxxxxxxxxxxxxxxxxxxxxxxxxxxxxxxxxxx          
.................... #define     mo_relay_buzzer_dc   g_rbdcb=0;  //output_low(g_buzerelay) 
.................... #define     tat_relay_buzzer_dc  g_rbdcb=1;  //output_low(g_buzerelay) 
....................  
.................... //xxxxxxxxxxxxxxxxxxxxxxxxxxxxxxxxxxxxxxxxxxxx 
.................... //chuong trinh kiem tra phim bt1 
.................... //xxxxxxxxxxxxxxxxxxxxxxxxxxxxxxxxxxxxxxxxxxxx 
.................... unsigned int8 dl_btn=0; 
.................... int1 phim_bt0(unsigned int16 dl) 
.................... {   
....................     if (!input(bt0)) 
*
02F0:  BSF    F93.5
02F2:  BTFSC  F81.5
02F4:  BRA    0314
....................     {   
....................       dl_btn++; 
02F6:  INCF   1B,F
....................        
....................       if (dl_btn>= dl) 
02F8:  MOVF   x7E,F
02FA:  BNZ   030C
02FC:  MOVF   x7D,W
02FE:  SUBWF  1B,W
0300:  BNC   030C
....................          { 
....................             dl_btn =0; 
0302:  CLRF   1B
....................             return(1); 
0304:  MOVLW  01
0306:  MOVWF  01
0308:  BRA    0318
....................          } 
030A:  BRA    0312
....................       else return(0); 
030C:  MOVLW  00
030E:  MOVWF  01
0310:  BRA    0318
....................     } 
0312:  BRA    0318
....................     else    return(0); 
0314:  MOVLW  00
0316:  MOVWF  01
0318:  GOTO   0324 (RETURN)
.................... }  
.................... //xxxxxxxxxxxxxxxxxxxxxxxxxxxxxxxxxxxxxxxxxxxx 
.................... //chuong trinh kiem tra phim bt1 
.................... //xxxxxxxxxxxxxxxxxxxxxxxxxxxxxxxxxxxxxxxxxxxx 
.................... int1 phim_bt1(unsigned int16 dl ) 
.................... {   
....................     if (!input(bt1)) 
*
036A:  BSF    F93.4
036C:  BTFSC  F81.4
036E:  BRA    038E
....................     {   
....................       dl_btn++; 
0370:  INCF   1B,F
....................        
....................       if (dl_btn>= dl) 
0372:  MOVF   x7E,F
0374:  BNZ   0386
0376:  MOVF   x7D,W
0378:  SUBWF  1B,W
037A:  BNC   0386
....................          { 
....................             dl_btn =0; 
037C:  CLRF   1B
....................             return(1); 
037E:  MOVLW  01
0380:  MOVWF  01
0382:  BRA    0392
....................          } 
0384:  BRA    038C
....................       else return(0); 
0386:  MOVLW  00
0388:  MOVWF  01
038A:  BRA    0392
....................     } 
038C:  BRA    0392
....................     else    return(0); 
038E:  MOVLW  00
0390:  MOVWF  01
0392:  GOTO   039E (RETURN)
.................... }  
.................... //xxxxxxxxxxxxxxxxxxxxxxxxxxxxxxxxxxxxxxxxxxxx 
.................... //chuong trinh kiem tra phim bt2       
.................... //xxxxxxxxxxxxxxxxxxxxxxxxxxxxxxxxxxxxxxxxxxxx                                     
.................... int1 phim_bt2(unsigned int16 dl ) 
.................... {                                         
....................     if (!input(bt2)) 
*
03E2:  BSF    F93.3
03E4:  BTFSC  F81.3
03E6:  BRA    0406
....................     {   
....................       dl_btn++; 
03E8:  INCF   1B,F
....................        
....................       if (dl_btn>= dl) 
03EA:  MOVF   x7E,F
03EC:  BNZ   03FE
03EE:  MOVF   x7D,W
03F0:  SUBWF  1B,W
03F2:  BNC   03FE
....................          { 
....................             dl_btn =0; 
03F4:  CLRF   1B
....................             return(1); 
03F6:  MOVLW  01
03F8:  MOVWF  01
03FA:  BRA    040A
....................          } 
03FC:  BRA    0404
....................       else return(0); 
03FE:  MOVLW  00
0400:  MOVWF  01
0402:  BRA    040A
....................     } 
0404:  BRA    040A
....................     else    return(0); 
0406:  MOVLW  00
0408:  MOVWF  01
040A:  GOTO   0416 (RETURN)
....................                                           
.................... }       
....................  
.................... //xxxxxxxxxxxxxxxxxxxxxxxxxxxxxxxxxxxxxxxxxxxx 
.................... //chuong trinh kiem tra phim bt3 
.................... //xxxxxxxxxxxxxxxxxxxxxxxxxxxxxxxxxxxxxxxxxxxx 
.................... int1 phim_bt3(unsigned int16 dl,  unsigned int8 solan  ) 
.................... {   
....................     if (!input(bt3)) 
....................     {   
....................       dl_btn++; 
....................       if(dl_btn==1) return(1); 
....................       else 
....................       { 
....................          if (dl_btn>= dl) 
....................          dl_btn =solan; 
....................       } 
....................     } 
....................     else    
....................     { 
....................       //dl_btn =0; 
....................       return(0); 
....................     } 
.................... }  
.................... //xxxxxxxxxxxxxxxxxxxxxxxxxxxxxxxxxxxxxxxxxxxx 
.................... //khai bao du lieu 16 bit cho module relay, triac, buzzer, dong co 
.................... //xxxxxxxxxxxxxxxxxxxxxxxxxxxxxxxxxxxxxxxxxxxx 
.................... unsigned int16 rbdc; 
.................... #bit step_motor_enable  = rbdc.0    //1=ena,0=dis 
.................... #bit step_motor_in1     = rbdc.1     
.................... #bit step_motor_in2     = rbdc.2 
.................... #bit step_motor_in3     = rbdc.3 
.................... #bit step_motor_in4     = rbdc.4 
.................... #bit dc_enable          = rbdc.5    //1=ena,0=dis 
.................... #bit pwrkey             = rbdc.6    //khoi tao sim900 
....................  
.................... #bit buzzer             = rbdc.8    //1=on,0=off 
.................... #bit triac_1            = rbdc.9    //1=on,0=off 
.................... #bit triac_2            = rbdc.10   //1=on,0=off 
.................... #bit relay_1            = rbdc.11   //0=on,1=off 
.................... #bit relay_2            = rbdc.12   //0=on,1=off 
....................  
.................... //ham 103 
.................... //xxxxxxxxxxxxxxxxxxxxxxxxxxxxxxxxxxxxxxxxxxxx 
.................... //chuong trinh con khoi tao ic chot 
.................... //xxxxxxxxxxxxxxxxxxxxxxxxxxxxxxxxxxxxxxxxxxxx          
.................... #define     cho_ic_74573_a_goi_du_lieu     output_high(enable_573a) 
.................... #define     chot_ic_74573_a_goi_du_lieu    output_low(enable_573a) 
....................  
.................... #define     cho_ic_74573_b_goi_du_lieu     output_high(enable_573b) 
.................... #define     chot_ic_74573_b_goi_du_lieu    output_low(enable_573b) 
.................... void mo_ic_74573_a_thong_dl(); 
....................  
.................... //xxxxxxxxxxxxxxxxxxxxxxxxxxxxxxxxxxxxxxxxxxxx    
.................... const unsigned char ma7doan[17]= {0xc0,0xf9,0xa4,0xb0,0x99,0x92,0x82,0xf8, 
.................... 0x80,0x90,0x88, 0x83, 0xc6, 0xa1, 0x86, 0x8e,0b01111111}; 
.................... #define     maso0    0xc0 
.................... #define     maso1    0xf9 
.................... #define     maso2    0xa4 
.................... #define     maso3    0xb0 
.................... #define     maso4    0x99 
.................... #define     maso5    0x92 
.................... #define     maso6    0x82 
.................... #define     maso7    0xf8 
....................  
.................... //xxxxxxxxxxxxxxxxxxxxxxxxxxxxxxxxxxxxxxxxxxxx  
.................... //ham 102 
.................... //xxxxxxxxxxxxxxxxxxxxxxxxxxxxxxxxxxxxxxxxxxxx     
.................... //xuat 1 byte ra thanh ghi dich 
.................... //xxxxxxxxxxxxxxxxxxxxxxxxxxxxxxxxxxxxxxxxxxxx     
.................... void xuat_1byte(unsigned int8 bytexuat) 
.................... { 
....................    unsigned int8   sb,x;    
....................    #bit bseri  = x.7 
....................    x = bytexuat; 
*
01FE:  MOVFF  93,95
....................    for (sb=0;sb<8;sb++) 
0202:  CLRF   x94
0204:  MOVF   x94,W
0206:  SUBLW  07
0208:  BNC   0226
....................       {                                                  
....................          output_bit(ssdo,bseri);     
020A:  BTFSC  x95.7
020C:  BRA    0212
020E:  BCF    F8D.2
0210:  BRA    0214
0212:  BSF    F8D.2
0214:  BCF    F96.2
....................          output_low(ssck); output_high(ssck); 
0216:  BCF    F96.0
0218:  BCF    F8D.0
021A:  BCF    F96.0
021C:  BSF    F8D.0
....................          x= x<<1;          
021E:  BCF    FD8.0
0220:  RLCF   x95,F
0222:  INCF   x94,F
0224:  BRA    0204
....................      } 
0226:  RETURN 0
.................... } 
.................... //xxxxxxxxxxxxxxxxxxxxxxxxxxxxxxxxxxxxxxxxxxxx  
.................... //ham 301 
.................... //xxxxxxxxxxxxxxxxxxxxxxxxxxxxxxxxxxxxxxxxxxxx 
.................... //chuong trinh con xuat 4 byte ra 32 led don 
.................... //xxxxxxxxxxxxxxxxxxxxxxxxxxxxxxxxxxxxxxxxxxxx 
.................... void xuat_32led_don_4byte(unsigned int8 bld3,bld2,bld1,bld0) 
.................... {      
....................       xuat_1byte(bld3);           
*
05C8:  MOVFF  8F,93
05CC:  RCALL  01FE
....................       xuat_1byte(bld2); 
05CE:  MOVFF  90,93
05D2:  RCALL  01FE
....................       xuat_1byte(bld1);           
05D4:  MOVFF  91,93
05D8:  RCALL  01FE
....................       xuat_1byte(bld0);             
05DA:  MOVFF  92,93
05DE:  RCALL  01FE
....................       mo_32_led_don;       
05E0:  BCF    19.4
....................       mo_ic_74573_a_thong_dl();             
05E2:  RCALL  046E
....................       output_high(rck_32led);    output_low(rck_32led); 
05E4:  BCF    F95.5
05E6:  BSF    F8C.5
05E8:  BCF    F95.5
05EA:  BCF    F8C.5
....................       chot_ic_74573_a_goi_du_lieu;       
05EC:  BCF    F95.1
05EE:  BCF    F8C.1
05F0:  GOTO   0616 (RETURN)
.................... } 
.................... //ham 302 
.................... //xxxxxxxxxxxxxxxxxxxxxxxxxxxxxxxxxxxxxxxxxxxx 
.................... //chuong trinh con xuat 2 word 16 bitra 32 led don 
.................... //xxxxxxxxxxxxxxxxxxxxxxxxxxxxxxxxxxxxxxxxxxxx 
.................... void xuat_32led_don_2word(unsigned int16 wld1, unsigned int16 wld0) 
.................... {      
....................      unsigned int8  b3,b2,b1,b0; 
....................      b3 = wld1>>8;  b2 = wld1;  
05F4:  MOVFF  88,8B
05F8:  MOVFF  87,8C
....................      b1 = wld0>>8;  b0 = wld0; 
05FC:  MOVFF  8A,8D
0600:  MOVFF  89,8E
....................      xuat_32led_don_4byte(b3,b2,b1,b0); 
0604:  MOVFF  8B,8F
0608:  MOVFF  8C,90
060C:  MOVFF  8D,91
0610:  MOVFF  8E,92
0614:  BRA    05C8
0616:  RETURN 0
.................... } 
.................... //ham 303 
.................... //xxxxxxxxxxxxxxxxxxxxxxxxxxxxxxxxxxxxxxxxxxxx 
.................... //chuong trinh con xuat 1 double word ra 32 led don 
.................... //xxxxxxxxxxxxxxxxxxxxxxxxxxxxxxxxxxxxxxxxxxxx 
.................... void xuat_32led_don_1dw(unsigned long long dwld) 
.................... {      
....................      unsigned int16  wd1,wd0; 
....................      wd1 = dwld>>16;  wd0 = dwld; 
0618:  MOVFF  81,83
061C:  MOVFF  82,84
0620:  MOVFF  80,86
0624:  MOVFF  7F,85
....................      xuat_32led_don_2word(wd1,wd0); 
0628:  MOVFF  84,88
062C:  MOVFF  83,87
0630:  MOVFF  86,8A
0634:  MOVFF  85,89
0638:  RCALL  05F4
063A:  RETURN 0
.................... } 
....................  
.................... //ham 304 
.................... //xxxxxxxxxxxxxxxxxxxxxxxxxxxxxxxxxxxxxxxxxxxx 
.................... //chuong trinh con mo 32 led don sang 
.................... //xxxxxxxxxxxxxxxxxxxxxxxxxxxxxxxxxxxxxxxxxxxx 
.................... void mo_32led_don() 
.................... {         
....................      xuat_32led_don_1dw(0xffffffff); 
.................... } 
.................... //ham 305 
.................... //xxxxxxxxxxxxxxxxxxxxxxxxxxxxxxxxxxxxxxxxxxxx 
.................... //chuong trinh con tat 32 led don  
.................... //xxxxxxxxxxxxxxxxxxxxxxxxxxxxxxxxxxxxxxxxxxxx 
.................... void tat_32led_don() 
.................... {         
....................      xuat_32led_don_1dw(0); 
.................... } 
.................... //xxxxxxxxxxxxxxxxxxxxxxxxxxxxxxxxxxxxxxxxxxxx     
.................... //xuat 1 bit roi tra lai ket qua sau khi dich di 1 bit 
.................... //xxxxxxxxxxxxxxxxxxxxxxxxxxxxxxxxxxxxxxxxxxxx     
.................... unsigned  int8 xuat_1bit(unsigned int8 bytexuat) 
.................... { 
....................       unsigned int8   xbitx;    
....................       #bit bserix  = xbitx.0 
....................       xbitx = bytexuat; 
....................                                              
....................       output_bit(ssdo,bserix);     
....................       output_low(ssck); output_high(ssck); 
....................       xbitx= xbitx>>1;    
....................       return(xbitx);   
.................... } 
.................... //xxxxxxxxxxxxxxxxxxxxxxxxxxxxxxxxxxxxxxxxxxxx  
.................... //ham 101 
.................... //xxxxxxxxxxxxxxxxxxxxxxxxxxxxxxxxxxxxxxxxxxxx     
.................... //ham khoi tao cac port va ic chot 
.................... //xxxxxxxxxxxxxxxxxxxxxxxxxxxxxxxxxxxxxxxxxxxx     
....................    void set_up_port_ic_chot() 
.................... {      
....................       set_tris_d(0x00);     
*
00F8:  MOVLW  00
00FA:  MOVWF  F95
....................       set_tris_e(0x00); 
00FC:  MOVWF  F96
....................       output_d(0xff); 
00FE:  CLRF   F95
0100:  SETF   F8C
....................       tin_hieu_dk_74573_a=0xff;   
0102:  SETF   19
....................       tin_hieu_dk_74573_b=0xff;       
0104:  SETF   1A
....................       chot_ic_74573_a_goi_du_lieu; 
0106:  BCF    F95.1
0108:  BCF    F8C.1
....................       chot_ic_74573_b_goi_du_lieu;   
010A:  BCF    F95.0
010C:  BCF    F8C.0
....................       rbdc=0; 
010E:  CLRF   1D
0110:  CLRF   1C
0112:  GOTO   0B00 (RETURN)
.................... } 
.................... //ham 104 
.................... //xxxxxxxxxxxxxxxxxxxxxxxxxxxxxxxxxxxxxxxxxxxx     
.................... //xuat cï¿½c thieu dieu khien  
.................... //giu nguyen cac trang thai cua 2 module khac 
.................... //xxxxxxxxxxxxxxxxxxxxxxxxxxxxxxxxxxxxxxxxxxxx     
.................... void mo_ic_74573_a_thong_dl() 
.................... {      
....................       output_d(0x00); 
*
046E:  CLRF   F95
0470:  CLRF   F8C
....................       output_bit(g_32led,g_32a); 
0472:  BTFSC  19.4
0474:  BRA    047A
0476:  BCF    F8C.4
0478:  BRA    047C
047A:  BSF    F8C.4
047C:  BCF    F95.4
....................       output_bit(g_4led7doan,g_4a); 
047E:  BTFSC  19.6
0480:  BRA    0486
0482:  BCF    F8C.6
0484:  BRA    0488
0486:  BSF    F8C.6
0488:  BCF    F95.6
....................       output_bit(g_lcd20x4,g_lcda);   
048A:  BTFSC  19.2
048C:  BRA    0492
048E:  BCF    F8C.2
0490:  BRA    0494
0492:  BSF    F8C.2
0494:  BCF    F95.2
....................       cho_ic_74573_a_goi_du_lieu; 
0496:  BCF    F95.1
0498:  BSF    F8C.1
049A:  RETURN 0
.................... } 
.................... void mo_ic_74573_b_thong_dl() 
.................... {      
....................       output_d(0x00); 
*
0228:  CLRF   F95
022A:  CLRF   F8C
....................       output_bit(g_matranled,g_mtb); 
022C:  BTFSC  1A.6
022E:  BRA    0234
0230:  BCF    F8C.6
0232:  BRA    0236
0234:  BSF    F8C.6
0236:  BCF    F95.6
....................       output_bit(g_8ledquet,g_8b); 
0238:  BTFSC  1A.4
023A:  BRA    0240
023C:  BCF    F8C.4
023E:  BRA    0242
0240:  BSF    F8C.4
0242:  BCF    F95.4
....................       output_bit(g_buzerelay,g_rbdcb);  
0244:  BTFSC  1A.2
0246:  BRA    024C
0248:  BCF    F8C.2
024A:  BRA    024E
024C:  BSF    F8C.2
024E:  BCF    F95.2
....................       cho_ic_74573_b_goi_du_lieu; 
0250:  BCF    F95.0
0252:  BSF    F8C.0
0254:  RETURN 0
.................... } 
.................... //ham 401 
.................... //xxxxxxxxxxxxxxxxxxxxxxxxxxxxxxxxxxxxxxxxxxxx 
.................... //chuong trinh con xuat 4 byte ra 4 led 7 doan 
.................... //xxxxxxxxxxxxxxxxxxxxxxxxxxxxxxxxxxxxxxxxxxxx 
.................... void xuat_4led_7doan_4so(unsigned int bl743,bl742,bl741,bl740) 
.................... {      
....................       xuat_1byte(bl740);   xuat_1byte(bl741); 
*
049C:  MOVFF  82,93
04A0:  RCALL  01FE
04A2:  MOVFF  81,93
04A6:  RCALL  01FE
....................       xuat_1byte(bl742);   xuat_1byte(bl743); 
04A8:  MOVFF  80,93
04AC:  RCALL  01FE
04AE:  MOVFF  7F,93
04B2:  RCALL  01FE
....................        
....................       mo_4_led_7doan; 
04B4:  BCF    19.6
....................       mo_ic_74573_a_thong_dl(); 
04B6:  RCALL  046E
....................         
....................       output_low(rck_4led7doan);   output_high(rck_4led7doan);  
04B8:  BCF    F95.7
04BA:  BCF    F8C.7
04BC:  BCF    F95.7
04BE:  BSF    F8C.7
....................       chot_ic_74573_a_goi_du_lieu; 
04C0:  BCF    F95.1
04C2:  BCF    F8C.1
04C4:  GOTO   05C4 (RETURN)
.................... } 
.................... //ham 404 
.................... void xuat_4led_7doan_3so(unsigned int bl742,bl741,bl740) 
.................... {      
....................      xuat_4led_7doan_4so(0xff,bl742,bl741,bl740); 
.................... } 
.................... //ham 403 
.................... void xuat_4led_7doan_2so(unsigned int bl741,bl740) 
.................... {      
....................      xuat_4led_7doan_4so(0xff,0xff,bl741,bl740); 
.................... } 
.................... //ham 402 
.................... void xuat_4led_7doan_1so(unsigned int bl740) 
.................... {      
....................      xuat_4led_7doan_4so(0xff,0xff,0xff,bl740); 
.................... } 
....................  
.................... //ham 405 
.................... //xxxxxxxxxxxxxxxxxxxxxxxxxxxxxxxxxxxxxxxxxxxxxxxxxxxxxxxxxxxxx 
.................... //chuong trinh con hien thi du lieu 16 bit tren 4 led 7 doan 
.................... //xxxxxxxxxxxxxxxxxxxxxxxxxxxxxxxxxxxxxxxxxxxxxxxxxxxxxxxxxxxxx 
.................... unsigned char donvi4,chuc4,tram4,ngan4; 
.................... void  xuat_4led_7doan_giaima_xoa_so0 (unsigned int16 tam) 
.................... {          
....................       donvi4 = ma7doan[tam %10];          
04C8:  MOVFF  7E,82
04CC:  MOVFF  7D,81
04D0:  CLRF   x84
04D2:  MOVLW  0A
04D4:  MOVWF  x83
04D6:  RCALL  042C
04D8:  MOVFF  00,7F
04DC:  MOVFF  03,80
04E0:  MOVFF  03,03
04E4:  MOVF   00,W
04E6:  RCALL  00AE
04E8:  MOVWF  1E
....................       chuc4  = ma7doan[tam/10%10]; 
04EA:  MOVFF  7E,82
04EE:  MOVFF  7D,81
04F2:  CLRF   x84
04F4:  MOVLW  0A
04F6:  MOVWF  x83
04F8:  RCALL  042C
04FA:  MOVFF  02,80
04FE:  MOVFF  01,7F
0502:  MOVFF  02,82
0506:  MOVFF  01,81
050A:  CLRF   x84
050C:  MOVLW  0A
050E:  MOVWF  x83
0510:  RCALL  042C
0512:  MOVFF  00,7F
0516:  MOVFF  03,80
051A:  MOVFF  03,03
051E:  MOVF   00,W
0520:  RCALL  00AE
0522:  MOVWF  1F
....................       tram4  = ma7doan[tam/100%10];  
0524:  MOVFF  7E,82
0528:  MOVFF  7D,81
052C:  CLRF   x84
052E:  MOVLW  64
0530:  MOVWF  x83
0532:  RCALL  042C
0534:  MOVFF  02,80
0538:  MOVFF  01,7F
053C:  MOVFF  02,82
0540:  MOVFF  01,81
0544:  CLRF   x84
0546:  MOVLW  0A
0548:  MOVWF  x83
054A:  RCALL  042C
054C:  MOVFF  00,7F
0550:  MOVFF  03,80
0554:  MOVFF  03,03
0558:  MOVF   00,W
055A:  RCALL  00AE
055C:  MOVWF  20
....................       ngan4  = ma7doan[tam/1000%10];        
055E:  MOVFF  7E,82
0562:  MOVFF  7D,81
0566:  MOVLW  03
0568:  MOVWF  x84
056A:  MOVLW  E8
056C:  MOVWF  x83
056E:  RCALL  042C
0570:  MOVFF  02,80
0574:  MOVFF  01,7F
0578:  MOVFF  02,82
057C:  MOVFF  01,81
0580:  CLRF   x84
0582:  MOVLW  0A
0584:  MOVWF  x83
0586:  RCALL  042C
0588:  MOVFF  00,7F
058C:  MOVFF  03,80
0590:  MOVFF  03,03
0594:  MOVF   00,W
0596:  RCALL  00AE
0598:  MOVWF  21
....................       if (ngan4==0xc0) 
059A:  MOVF   21,W
059C:  SUBLW  C0
059E:  BNZ   05B2
....................       { 
....................          ngan4=0xff; 
05A0:  SETF   21
....................          if (tram4==0xc0) 
05A2:  MOVF   20,W
05A4:  SUBLW  C0
05A6:  BNZ   05B2
....................          { 
....................             tram4=0xff; 
05A8:  SETF   20
....................             if (chuc4==0xc0)   chuc4=0xff; 
05AA:  MOVF   1F,W
05AC:  SUBLW  C0
05AE:  BNZ   05B2
05B0:  SETF   1F
....................          } 
....................       } 
....................       xuat_4led_7doan_4so(ngan4,tram4,chuc4,donvi4);    
05B2:  MOVFF  21,7F
05B6:  MOVFF  20,80
05BA:  MOVFF  1F,81
05BE:  MOVFF  1E,82
05C2:  BRA    049C
05C4:  GOTO   0B92 (RETURN)
.................... } 
.................... unsigned int8 lcddata=0;  
.................... unsigned int8 lcdcontrol=0; 
.................... unsigned int8 glcddata=0; 
.................... unsigned int8 glcdcontrol=0;  
.................... //ham 701 
.................... //xxxxxxxxxxxxxxxxxxxxxxxxxxxxxxxxxxxxxxxxxxxxxxxxxxxxxxxxxxxxx 
.................... //chuong trinh con xuat du lieu 4 byte ra glcd va lcd 
.................... //xxxxxxxxxxxxxxxxxxxxxxxxxxxxxxxxxxxxxxxxxxxxxxxxxxxxxxxxxxxxx 
.................... void xuat_glcd_lcd() 
.................... {       
....................     xuat_1byte(glcdcontrol);              
....................     xuat_1byte(glcddata); 
....................     xuat_1byte(lcdcontrol);        
....................     xuat_1byte(lcddata);       
....................        
....................     mo_glcd_lcd; 
....................     mo_ic_74573_a_thong_dl();             
....................     output_high(rck_lcd20x4);      
....................     output_low(rck_lcd20x4); 
....................     chot_ic_74573_a_goi_du_lieu; 
.................... } 
.................... //ham 702 
.................... void xuat_lcd20x4(unsigned int8 lcd_signal,lcd_ins_hthi) 
.................... {      
....................     lcdcontrol = ~lcd_signal; 
....................     lcddata    = ~lcd_ins_hthi;       
....................     xuat_glcd_lcd(); 
.................... } 
.................... //ham 703 
.................... void xuat_glcd128x64(unsigned int8 glcd_signal,glcd_ins_hthi) 
.................... {      
....................     glcdcontrol = ~glcd_signal; 
....................     glcddata    = ~glcd_ins_hthi;      
....................     xuat_glcd_lcd(); 
.................... } 
.................... //ham 501 
.................... //xxxxxxxxxxxxxxxxxxxxxxxxxxxxxxxxxxxxxxxxxxxx 
.................... //chuong trinh con xuat 2 byte ra dk 1 led quet sang 
.................... //xxxxxxxxxxxxxxxxxxxxxxxxxxxxxxxxxxxxxxxxxxxx 
.................... void xuat_8led_7doan_quet_1(unsigned int ma,so_hthi) 
.................... {      
....................       xuat_1byte(~ma);   xuat_1byte(~so_hthi); 
*
0288:  MOVF   x83,W
028A:  MOVWF  x85
028C:  COMF   x85,F
028E:  MOVFF  85,93
0292:  RCALL  01FE
0294:  MOVFF  84,85
0298:  COMF   x85,F
029A:  MOVFF  85,93
029E:  RCALL  01FE
....................        
....................       mo_8_led_quet; 
02A0:  BCF    1A.4
....................       mo_ic_74573_b_thong_dl(); 
02A2:  RCALL  0228
....................        
....................       output_high(rck_8ledquet); output_low(rck_8ledquet); 
02A4:  BCF    F95.5
02A6:  BSF    F8C.5
02A8:  BCF    F95.5
02AA:  BCF    F8C.5
....................       chot_ic_74573_b_goi_du_lieu; 
02AC:  BCF    F95.0
02AE:  BCF    F8C.0
02B0:  GOTO   02BA (RETURN)
.................... } 
.................... //ham 502 
.................... //xxxxxxxxxxxxxxxxxxxxxxxxxxxxxxxxxxxxxxxxxxxx 
.................... //chuong trinh con xuat 2 byte ra tat 8 led quet 
.................... //xxxxxxxxxxxxxxxxxxxxxxxxxxxxxxxxxxxxxxxxxxxx 
.................... void xuat_8led_7doan_quet_tat_led() 
.................... { 
....................    xuat_8led_7doan_quet_1(0xff,0xff); 
02B4:  SETF   x83
02B6:  SETF   x84
02B8:  BRA    0288
02BA:  GOTO   02EA (RETURN)
.................... } 
.................... //ham 503 
.................... //xxxxxxxxxxxxxxxxxxxxxxxxxxxxxxxxxxxxxxxxxxxx 
.................... //chuong trinh con hien thi led theo thu tu 
.................... //xxxxxxxxxxxxxxxxxxxxxxxxxxxxxxxxxxxxxxxxxxxx 
.................... const unsigned char ttledquet[8]= {0x7f,0xbf,0xdf,0xef,0xf7,0xfb,0xfd,0xfe}; 
.................... void xuat_8led_7doan_quet_2(unsigned int thutuled,so_hthi) 
.................... {          
....................       xuat_1byte(~ (ttledquet[thutuled]));   xuat_1byte(~so_hthi);      
*
0256:  CLRF   03
0258:  MOVF   x84,W
025A:  RCALL  00D0
025C:  MOVWF  01
025E:  MOVWF  x86
0260:  COMF   x86,F
0262:  MOVFF  86,93
0266:  RCALL  01FE
0268:  MOVFF  85,86
026C:  COMF   x86,F
026E:  MOVFF  86,93
0272:  RCALL  01FE
....................       mo_8_led_quet; 
0274:  BCF    1A.4
....................       mo_ic_74573_b_thong_dl(); 
0276:  RCALL  0228
....................       output_high(rck_8ledquet); output_low(rck_8ledquet); 
0278:  BCF    F95.5
027A:  BSF    F8C.5
027C:  BCF    F95.5
027E:  BCF    F8C.5
....................       chot_ic_74573_b_goi_du_lieu; 
0280:  BCF    F95.0
0282:  BCF    F8C.0
0284:  GOTO   02DE (RETURN)
.................... } 
.................... //ham 504 
.................... //xxxxxxxxxxxxxxxxxxxxxxxxxxxxxxxxxxxxxxxxxxxx 
.................... //chuong trinh con hien thi 8 so tren 8 led quet - co kiem tra 
.................... //xxxxxxxxxxxxxxxxxxxxxxxxxxxxxxxxxxxxxxxxxxxx 
.................... unsigned int8 led_7dq[8]={0xff,0xff,0xff,0xff,0xff,0xff,0xff,0xff}; 
.................... unsigned int8 tt8led=0; 
.................... void hien_thi_8led_7doan_quet() 
.................... {      
....................       for(tt8led=0;tt8led<8;tt8led++) 
....................          if (led_7dq[tt8led]!=0xff) 
....................          {            
....................             xuat_8led_7doan_quet_2(tt8led, led_7dq[tt8led]); 
....................             delay_us(100); 
....................             xuat_8led_7doan_quet_tat_led();            
....................             } 
.................... } 
.................... //ham 505 
.................... //xxxxxxxxxxxxxxxxxxxxxxxxxxxxxxxxxxxxxxxxxxxx 
.................... //chuong trinh con hien thi 8 so tren 8 led quet - khong kiem tra 
.................... //xxxxxxxxxxxxxxxxxxxxxxxxxxxxxxxxxxxxxxxxxxxx 
.................... void hien_thi_8led_7doan_quet_all() 
.................... {      
....................       for(tt8led=0;tt8led<8;tt8led++)          
*
02BE:  CLRF   2E
02C0:  MOVF   2E,W
02C2:  SUBLW  07
02C4:  BNC   02EE
....................          {            
....................             xuat_8led_7doan_quet_2(tt8led, led_7dq[tt8led]); 
02C6:  CLRF   03
02C8:  MOVF   2E,W
02CA:  ADDLW  26
02CC:  MOVWF  FE9
02CE:  MOVLW  00
02D0:  ADDWFC 03,W
02D2:  MOVWF  FEA
02D4:  MOVFF  FEF,85
02D8:  MOVFF  2E,84
02DC:  BRA    0256
....................             delay_us(100); 
02DE:  MOVLW  A6
02E0:  MOVWF  00
02E2:  DECFSZ 00,F
02E4:  BRA    02E2
02E6:  NOP   
....................             xuat_8led_7doan_quet_tat_led();            
02E8:  BRA    02B4
02EA:  INCF   2E,F
02EC:  BRA    02C0
....................             } 
02EE:  RETURN 0
.................... } 
....................  
.................... void delay_quet_8led(unsigned int16 dl) 
.................... {  
....................       unsigned int8 i; 
....................       for (i=0; i<dl;i++) 
....................       hien_thi_8led_7doan_quet_all(); 
.................... }  
....................  
.................... void giai_ma_gan_cho_8led_quet_16_xoa(unsigned int16 x) 
.................... {      
....................       led_7dq[0]= ma7doan [x %10];     
....................       led_7dq[1]= ma7doan [x/10%10]; 
....................       led_7dq[2]= ma7doan [x/100%10];     
....................       led_7dq[3]= ma7doan [x/1000%10]; 
....................       led_7dq[4]= ma7doan [x/10000%10]; 
....................       if (led_7dq[4]==maso0)  
....................       { 
....................             led_7dq[4]=0xff; 
....................             if (led_7dq[3]==maso0)  
....................             { 
....................                led_7dq[3]=0xff; 
....................                if (led_7dq[2]==maso0)  
....................                { 
....................                   led_7dq[2]=0xff; 
....................                   if (led_7dq[1]==maso0)  
....................                   { 
....................                      led_7dq[1]=0xff; 
....................                   } 
....................                } 
....................             } 
....................       } 
....................              
.................... } 
.................... //xxxxxxxxxxxxxxxxxxxxxxxxxxxxxxxxxxxxxxxxxxxx          
.................... void xuat_2byte(unsigned int16 byte2xuat) 
.................... { 
....................    int8 sbb; 
....................    unsigned int16   xx;   //short  bseri; 
....................    #bit bserix  = xx.15 
....................    xx = byte2xuat; 
....................    for (sbb=0;sbb<16;sbb++) 
....................       {                                                  
....................          output_bit(ssdo,bserix);     
....................          output_low(ssck);          
....................          output_high(ssck); 
....................          xx= xx<<1;          
....................      } 
.................... } 
.................... //xxxxxxxxxxxxxxxxxxxxxxxxxxxxxxxxxxxxxxxxxxxx 
.................... //chuong trinh con xuat ra led ma tran 
.................... //xxxxxxxxxxxxxxxxxxxxxxxxxxxxxxxxxxxxxxxxxxxx 
.................... void xuat_matranled(unsigned int16 mahang,unsigned int16 macot1, 
.................... unsigned int16 macot2,unsigned int16 macot3) 
.................... {       
....................       xuat_2byte(macot3); 
....................       xuat_2byte(macot2); 
....................       xuat_2byte(macot1); 
....................       xuat_2byte(mahang); 
....................        
....................       mo_led_matran; 
....................       mo_ic_74573_b_thong_dl(); 
....................        
....................       output_high(rck_matranled); output_low(rck_matranled);  
....................       chot_ic_74573_b_goi_du_lieu; 
.................... } 
.................... //xxxxxxxxxxxxxxxxxxxxxxxxxxxxxxxxxxxxxxxxxxxx 
.................... //chuong trinh con xuat ra led ma tran 
.................... //xxxxxxxxxxxxxxxxxxxxxxxxxxxxxxxxxxxxxxxxxxxx 
.................... void tat_matranled() 
.................... {       
....................       xuat_2byte(0); 
....................       xuat_2byte(0); 
....................       xuat_2byte(0); 
....................       xuat_2byte(0);            
....................       output_high(rck_matranled);  
....................       output_low(rck_matranled); 
.................... } 
.................... unsigned  int8 hieu_chinh_4bit_cao(unsigned int8 xzy) 
.................... { 
....................       int1  btg; 
....................       unsigned int8   bx;    
....................       #bit bit4  = bx.4 
....................       #bit bit5  = bx.5 
....................       #bit bit6  = bx.6 
....................       #bit bit7  = bx.7 
....................       bx=xzy; 
....................       btg=bit4;   bit4=bit7;  bit7=btg; 
....................       btg=bit5;   bit5=bit6;  bit6=btg;       
....................       return(bx);   
.................... } 
.................... //ham 601 
.................... //xxxxxxxxxxxxxxxxxxxxxxxxxxxxxxxxxxxxxxxxxxxxxxxxxxxx 
.................... //module dieu khien relay,triac, buzzer, dong co, sim 
.................... //xxxxxxxxxxxxxxxxxxxxxxxxxxxxxxxxxxxxxxxxxxxxxxxxxxxx 
.................... void xuat_buzzer_relay() 
.................... {      
....................    unsigned int8 rbdc1,rbdc2; 
....................       rbdc1=rbdc; rbdc2=rbdc>>8;       
....................       xuat_1byte(rbdc2);       
....................       xuat_1byte(rbdc1); 
....................       mo_relay_buzzer_dc; 
....................       mo_ic_74573_b_thong_dl(); 
....................        
....................       output_high(rck_buzerelay);   output_low(rck_buzerelay); 
....................       chot_ic_74573_b_goi_du_lieu; 
.................... } 
.................... //ham 602 
.................... //xxxxxxxxxxxxxxxxxxxxxxxxxxxxxxxxxxxxxxxxxxxxxxxxxxxx 
.................... void buzzer_on() 
.................... {     
....................       buzzer=1; 
....................       xuat_buzzer_relay();          
.................... } 
.................... //ham 603 
.................... //xxxxxxxxxxxxxxxxxxxxxxxxxxxxxxxxxxxxxxxxxxxxxxxxxxxx 
.................... void buzzer_off() 
.................... {      
....................       buzzer=0; 
....................       xuat_buzzer_relay(); 
.................... } 
.................... //ham 604 
.................... //xxxxxxxxxxxxxxxxxxxxxxxxxxxxxxxxxxxxxxxxxxxxxxxxxxxx 
.................... void relay_1_on() 
.................... {     
....................       relay_1=1; 
....................       xuat_buzzer_relay();          
.................... } 
.................... //ham 603 
.................... //xxxxxxxxxxxxxxxxxxxxxxxxxxxxxxxxxxxxxxxxxxxxxxxxxxxx 
.................... void relay_1_off() 
.................... {     
....................       relay_1=0; 
....................       xuat_buzzer_relay();          
.................... } 
.................... //ham 604 
.................... //xxxxxxxxxxxxxxxxxxxxxxxxxxxxxxxxxxxxxxxxxxxxxxxxxxxx 
.................... void relay_2_on() 
.................... {     
....................       relay_2=1; 
....................       xuat_buzzer_relay();          
.................... } 
.................... //ham 607 
.................... //xxxxxxxxxxxxxxxxxxxxxxxxxxxxxxxxxxxxxxxxxxxxxxxxxxxx 
.................... void relay_2_off() 
.................... {     
....................       relay_2=0; 
....................       xuat_buzzer_relay();          
.................... } 
.................... //ham 608 
.................... //xxxxxxxxxxxxxxxxxxxxxxxxxxxxxxxxxxxxxxxxxxxxxxxxxxxx 
.................... void relay_1_relay_2_on() 
.................... {     
....................       relay_1=1;  relay_2=1; 
....................       xuat_buzzer_relay();          
.................... } 
.................... //ham 609 
.................... //xxxxxxxxxxxxxxxxxxxxxxxxxxxxxxxxxxxxxxxxxxxxxxxxxxxx 
.................... void relay_1_relay_2_off() 
.................... {     
....................       relay_1=0;  relay_2=0; 
....................       xuat_buzzer_relay();          
.................... } 
.................... //ham 610 
.................... //xxxxxxxxxxxxxxxxxxxxxxxxxxxxxxxxxxxxxxxxxxxxxxxxxxxx 
.................... void triac_1_on() 
.................... {     
....................       triac_1=1; 
....................       xuat_buzzer_relay();          
.................... } 
.................... //ham 611 
.................... //xxxxxxxxxxxxxxxxxxxxxxxxxxxxxxxxxxxxxxxxxxxxxxxxxxxx 
.................... void triac_1_off() 
.................... {     
....................       triac_1=0; 
....................       xuat_buzzer_relay();          
.................... } 
.................... //ham 612 
.................... //xxxxxxxxxxxxxxxxxxxxxxxxxxxxxxxxxxxxxxxxxxxxxxxxxxxx 
.................... void triac_2_on() 
.................... {     
....................       triac_2=1; 
....................       xuat_buzzer_relay();          
.................... } 
.................... //ham 613 
.................... //xxxxxxxxxxxxxxxxxxxxxxxxxxxxxxxxxxxxxxxxxxxxxxxxxxxx 
.................... void triac_2_off() 
.................... {     
....................       triac_2=0; 
....................       xuat_buzzer_relay();          
.................... } 
.................... //xxxxxxxxxxxxxxxxxxxxxxxxxxxxxxxxxxxxxxxxxxxx 
....................  
....................  
....................  
.................... #include "TV_PICKIT2_SHIFT_KEY4X4_138.c" 
.................... const unsigned char maquetkey[4]= {0x3f,0x7f,0xbf,0xff}; 
.................... unsigned int8  mpt1=0,mpt2=0;   
.................... unsigned int key_nhan() 
.................... {     signed int8 maphim,hang,cot; 
....................       maphim=hang=0xff; 
....................       for(cot=0;cot<4;cot++) 
....................             {    
....................                output_b(maquetkey[cot]); 
....................                if         (!input(pin_b2))      {hang=3;   break;} 
....................                else    if (!input(pin_b3))      {hang=2;   break;} 
....................                else    if (!input(pin_b4))      {hang=1;   break;} 
....................                else    if (!input(pin_b5))      {hang=0;   break;} 
....................             }           
....................          if (hang!=0xff)   maphim   = cot*4 + hang; 
....................          return(maphim); 
.................... } 
.................... unsigned int key_4x4_dw() 
.................... {      
....................       mpt1=key_nhan();          
....................       if (mpt1!=0xff)    
....................       {  delay_ms(1);   
....................          mpt1=key_nhan(); 
....................          do{mpt2=key_nhan();} 
....................          while (mpt2==mpt1); 
....................       }              
....................       return(mpt1); 
.................... } 
....................  
.................... unsigned int key_4x4_up() 
.................... {             
....................       mpt1=key_nhan(); 
....................       if (mpt1!=0xff)    
....................       {   
....................          if (mpt1!=mpt2) 
....................             { 
....................                return(mpt1);  //phim moi 
....................                mpt2=mpt1; 
....................             } 
....................          else 
....................          { 
....................             delay_ms(1); 
....................             mpt1=key_nhan(); 
....................             do 
....................             { 
....................                mpt2=key_nhan(); 
....................                } 
....................             while (mpt2!=mpt1); 
.................... 			mpt2=mpt1; 
....................             return(mpt1);     //thoat vi trung ma phim da nhan 
....................                            
....................          } 
....................       }   
....................       else  
....................       { 
.................... 		 mpt2=mpt1; 
....................          return(mpt1);  //thoat vi khong nhan 
....................           
....................       }       
.................... } 
....................  
....................  
....................  
.................... #include "TV_PICKIT2_SHIFT_32LED_DON.c" 
.................... unsigned int32    y=0,yp_chay=1,yt_chay=0x80000000,y_codinh=0; 
.................... unsigned int16 zt,zt_chay_t=0x8000,zt_chay_p=1,zt_codinh=0; 
.................... unsigned int16 zp,zp_chay_t=0x8000,zp_chay_p=1,zp_codinh=0; 
....................  
.................... unsigned int16 tgdlay=0; 
.................... unsigned int8 dem_led=0;  
.................... signed i32=32,j32=0,ttct_td=1,i16=16,j16=0; 
....................  
.................... unsigned int32    za=1,ya=1,xa=0xfffffffe,zb=0x80000000,yb=0x80000000,xb=0x7fffffff;    
.................... signed ia=1,ja=1;   
.................... void reset_toan_bo_bien() 
.................... {  
....................       ttct_td++;     //chuyen chuong trinh cho tu dong 
*
0658:  INCF   56,F
....................       y=0;      yp_chay=1;      yt_chay=0x80000000;      y_codinh=0; 
065A:  CLRF   34
065C:  CLRF   33
065E:  CLRF   32
0660:  CLRF   31
0662:  CLRF   38
0664:  CLRF   37
0666:  CLRF   36
0668:  MOVLW  01
066A:  MOVWF  35
066C:  MOVLW  80
066E:  MOVWF  3C
0670:  CLRF   3B
0672:  CLRF   3A
0674:  CLRF   39
0676:  CLRF   40
0678:  CLRF   3F
067A:  CLRF   3E
067C:  CLRF   3D
....................       zt_chay_t=0x8000;    zt_chay_p=1;   zt_codinh=0; 
067E:  MOVWF  44
0680:  CLRF   43
0682:  CLRF   46
0684:  MOVLW  01
0686:  MOVWF  45
0688:  CLRF   48
068A:  CLRF   47
....................       zp_chay_t=0x8000;    zp_chay_p=1;   zp_codinh=0; 
068C:  MOVLW  80
068E:  MOVWF  4C
0690:  CLRF   4B
0692:  CLRF   4E
0694:  MOVLW  01
0696:  MOVWF  4D
0698:  CLRF   50
069A:  CLRF   4F
....................       zt=zp=0; 
069C:  CLRF   4A
069E:  CLRF   49
06A0:  MOVFF  4A,42
06A4:  MOVFF  49,41
....................       i32=32;j32=0;i16=16,j16=0; 
06A8:  MOVLW  20
06AA:  MOVWF  54
06AC:  CLRF   55
06AE:  MOVLW  10
06B0:  MOVWF  57
06B2:  CLRF   58
....................       dem_led=0; 
06B4:  CLRF   53
....................        
....................       za=1;    ya=1;    xa=0xfffffffe;     ia=1;    ja=1; 
06B6:  CLRF   5C
06B8:  CLRF   5B
06BA:  CLRF   5A
06BC:  MOVLW  01
06BE:  MOVWF  59
06C0:  CLRF   x60
06C2:  CLRF   5F
06C4:  CLRF   5E
06C6:  MOVWF  5D
06C8:  SETF   x64
06CA:  SETF   x63
06CC:  SETF   x62
06CE:  MOVLW  FE
06D0:  MOVWF  x61
06D2:  MOVLW  01
06D4:  MOVWF  x71
06D6:  MOVWF  x72
....................      zb=0x80000000;    yb=0x80000000;    xb=0x7fffffff; 
06D8:  MOVLW  80
06DA:  MOVWF  x68
06DC:  CLRF   x67
06DE:  CLRF   x66
06E0:  CLRF   x65
06E2:  MOVWF  x6C
06E4:  CLRF   x6B
06E6:  CLRF   x6A
06E8:  CLRF   x69
06EA:  MOVLW  7F
06EC:  MOVWF  x70
06EE:  SETF   x6F
06F0:  SETF   x6E
06F2:  SETF   x6D
....................      tgdlay = 0; 
06F4:  CLRF   52
06F6:  CLRF   51
06F8:  RETURN 0
.................... }  
....................  
.................... void tang_dem_led_delay_1(unsigned int8 dl) 
.................... {  
....................       unsigned int8 i; 
....................       for (i=0; i<dl;i++) 
*
0732:  CLRF   x82
0734:  MOVF   x81,W
0736:  SUBWF  x82,W
0738:  BC    0740
....................       hien_thi_8led_7doan_quet_all(); 
073A:  RCALL  02BE
073C:  INCF   x82,F
073E:  BRA    0734
....................       dem_led++; 
0740:  INCF   53,F
0742:  GOTO   0758 (RETURN)
.................... }  
....................  
.................... void tang_dem_led_delay_0(unsigned int8 dl) 
.................... {  
....................       if (dl>0)      delay_ms(dl);  
*
0722:  MOVF   x81,F
0724:  BZ    072C
0726:  MOVFF  81,82
072A:  BRA    06FA
....................       dem_led++; 
072C:  INCF   53,F
072E:  GOTO   0758 (RETURN)
.................... }  
....................  
.................... void delay_chon(unsigned int8 dl,chondelay) 
.................... {     
....................    if (!chondelay)   tang_dem_led_delay_0(dl); 
*
0746:  MOVF   x80,F
0748:  BNZ   0752
074A:  MOVFF  7F,81
074E:  BRA    0722
0750:  BRA    0758
....................    else              tang_dem_led_delay_1(dl); 
0752:  MOVFF  7F,81
0756:  BRA    0732
0758:  RETURN 0
.................... } 
.................... //xxxxxxxxxxxxxxxxxxxxxxxxxxxxxxxxxxxxxxxxxxxx 
.................... //32 led: sang don  phai sang trai 
.................... //xxxxxxxxxxxxxxxxxxxxxxxxxxxxxxxxxxxxxxxxxxxx 
.................... void diem_sang_dich_trai_mat_dan_32led(unsigned int8 dl,chondelay) 
.................... {        
....................    if(ia<33) 
....................    { 
....................       if(ja>0) 
....................       { 
....................          zb = (zb << 1); 
....................          y = xb|zb;         
....................          xuat_32led_don_1dw(y); 
....................          delay_chon(dl,chondelay); 
....................          ja--; 
....................       } 
....................       else  
....................       { 
....................          ia++; 
....................          ja=ia;       
....................          yb = yb>>1; 
....................          xb = xb>>1; 
....................          zb = yb; 
....................       } 
....................    } 
....................    else reset_toan_bo_bien(); 
.................... }   
.................... //xxxxxxxxxxxxxxxxxxxxxxxxxxxxxxxxxxxxxxxxxxxx 
.................... //32 led: sang don  trai sang phai 
.................... //xxxxxxxxxxxxxxxxxxxxxxxxxxxxxxxxxxxxxxxxxxxx 
.................... void diem_sang_dich_phai_mat_dan_32led(unsigned int8 dl,chondelay) 
.................... {        
....................    if(ia<33) 
....................    { 
....................       if(ja>0) 
....................       { 
....................          za = (za >> 1); 
....................          y = xa|za;         
....................          xuat_32led_don_1dw(y); 
....................          delay_chon(dl,chondelay); 
....................          ja--; 
....................       } 
....................       else  
....................       { 
....................          ia++; 
....................          ja=ia;       
....................          ya = ya<<1; 
....................          xa = xa <<1; 
....................          za = ya; 
....................       } 
....................    } 
....................    else reset_toan_bo_bien(); 
.................... }   
.................... //xxxxxxxxxxxxxxxxxxxxxxxxxxxxxxxxxxxxxxxxxxxx 
.................... //32 led: chop tat  
.................... //xxxxxxxxxxxxxxxxxxxxxxxxxxxxxxxxxxxxxxxxxxxx 
.................... void dao_dl_32bit_va_xuat() 
.................... { 
....................    y=~y; 
*
063C:  COMF   31,F
063E:  COMF   32,F
0640:  COMF   33,F
0642:  COMF   34,F
....................    xuat_32led_don_1dw(y);  
0644:  MOVFF  34,82
0648:  MOVFF  33,81
064C:  MOVFF  32,80
0650:  MOVFF  31,7F
0654:  RCALL  0618
0656:  RETURN 0
.................... } 
.................... void sang_tat_32led(unsigned int8 dl,chondelay) 
.................... {         
....................       if (tgdlay==1)          xuat_32led_don_1dw(y);  
*
075A:  DECFSZ 51,W
075C:  BRA    0776
075E:  MOVF   52,F
0760:  BNZ   0776
0762:  MOVFF  34,82
0766:  MOVFF  33,81
076A:  MOVFF  32,80
076E:  MOVFF  31,7F
0772:  RCALL  0618
0774:  BRA    07AC
....................       else if (tgdlay==50)    dao_dl_32bit_va_xuat(); 
0776:  MOVF   51,W
0778:  SUBLW  32
077A:  BNZ   0784
077C:  MOVF   52,F
077E:  BNZ   0784
0780:  RCALL  063C
0782:  BRA    07AC
....................       else if (tgdlay==100)   dao_dl_32bit_va_xuat();           
0784:  MOVF   51,W
0786:  SUBLW  64
0788:  BNZ   0792
078A:  MOVF   52,F
078C:  BNZ   0792
078E:  RCALL  063C
0790:  BRA    07AC
....................       else if (tgdlay==150)   dao_dl_32bit_va_xuat();                  
0792:  MOVF   51,W
0794:  SUBLW  96
0796:  BNZ   07A0
0798:  MOVF   52,F
079A:  BNZ   07A0
079C:  RCALL  063C
079E:  BRA    07AC
....................       else if (tgdlay==200)   
07A0:  MOVF   51,W
07A2:  SUBLW  C8
07A4:  BNZ   07AC
07A6:  MOVF   52,F
07A8:  BNZ   07AC
....................       { 
.................... //!         ttct_td++;   y=0;        tgdlay=0; 
....................             reset_toan_bo_bien(); 
07AA:  RCALL  0658
....................       } 
....................       tgdlay++; 
07AC:  INCF   51,F
07AE:  BTFSC  FD8.2
07B0:  INCF   52,F
....................       delay_chon(dl,chondelay); 
07B2:  MOVFF  7D,7F
07B6:  MOVFF  7E,80
07BA:  RCALL  0746
07BC:  RETURN 0
.................... } 
.................... //xxxxxxxxxxxxxxxxxxxxxxxxxxxxxxxxxxxxxxxxxxxx 
.................... //32 led: sang dan roi tat dan tu ngoai vao 
.................... //xxxxxxxxxxxxxxxxxxxxxxxxxxxxxxxxxxxxxxxxxxxx 
.................... void sang_tat_dan_ngoai_vao_32led(unsigned int8 dl,chondelay) 
.................... {   
....................    if (dem_led<16) 
07BE:  MOVF   53,W
07C0:  SUBLW  0F
07C2:  BNC   0808
....................    {   
....................       xuat_32led_don_2word(zp,zt);         
07C4:  MOVFF  4A,88
07C8:  MOVFF  49,87
07CC:  MOVFF  42,8A
07D0:  MOVFF  41,89
07D4:  RCALL  05F4
....................       zp= (zp<<1)+1;  
07D6:  BCF    FD8.0
07D8:  RLCF   49,W
07DA:  MOVWF  x7F
07DC:  RLCF   4A,W
07DE:  MOVWF  x80
07E0:  MOVLW  01
07E2:  ADDWF  x7F,W
07E4:  MOVWF  49
07E6:  MOVLW  00
07E8:  ADDWFC x80,W
07EA:  MOVWF  4A
....................       zt= (zt>>1)+0x8000; 
07EC:  BCF    FD8.0
07EE:  RRCF   42,W
07F0:  MOVWF  x80
07F2:  RRCF   41,W
07F4:  MOVWF  41
07F6:  MOVLW  80
07F8:  ADDWF  x80,W
07FA:  MOVWF  42
....................       delay_chon(dl,chondelay); 
07FC:  MOVFF  7D,7F
0800:  MOVFF  7E,80
0804:  RCALL  0746
....................    } 
0806:  BRA    083A
....................    else  if (dem_led<32) 
0808:  MOVF   53,W
080A:  SUBLW  1F
080C:  BNC   0838
....................    {   
....................       xuat_32led_don_2word(zp,zt); 
080E:  MOVFF  4A,88
0812:  MOVFF  49,87
0816:  MOVFF  42,8A
081A:  MOVFF  41,89
081E:  RCALL  05F4
....................       zp= (zp<<1);  
0820:  BCF    FD8.0
0822:  RLCF   49,F
0824:  RLCF   4A,F
....................       zt= (zt>>1); 
0826:  BCF    FD8.0
0828:  RRCF   42,F
082A:  RRCF   41,F
....................       delay_chon(dl,chondelay); 
082C:  MOVFF  7D,7F
0830:  MOVFF  7E,80
0834:  RCALL  0746
....................    } 
0836:  BRA    083A
....................    else reset_toan_bo_bien(); 
0838:  RCALL  0658
083A:  RETURN 0
....................  
.................... }    
.................... //xxxxxxxxxxxxxxxxxxxxxxxxxxxxxxxxxxxxxxxxxxxx 
.................... //32 led: sang dan roi tat dan tu trong ra 
.................... //xxxxxxxxxxxxxxxxxxxxxxxxxxxxxxxxxxxxxxxxxxxx 
.................... void sang_tat_dan_trong_ra_32led(unsigned int8 dl,chondelay) 
.................... {   
....................    if (dem_led<16) 
....................    {    
....................       xuat_32led_don_2word(zp,zt);  
....................       zp= (zp>>1)+0x8000;  
....................       zt= (zt<<1)+1; 
....................       delay_chon(dl,chondelay); 
....................    } 
....................    else  if (dem_led<32) 
....................    {   
....................       xuat_32led_don_2word(zp,zt); 
....................       zp= (zp>>1);  
....................       zt= (zt<<1); 
....................       delay_chon(dl,chondelay); 
....................     } 
....................    else reset_toan_bo_bien(); 
....................          
.................... }    
.................... //xxxxxxxxxxxxxxxxxxxxxxxxxxxxxxxxxxxxxxxxxxxx 
.................... //32 led: 2nhom 16 led sang dan roi tat dan tu phai sang trai 
.................... //xxxxxxxxxxxxxxxxxxxxxxxxxxxxxxxxxxxxxxxxxxxx 
.................... void sang_tat_dan_phai_sang_trai_2x16led(unsigned int8 dl,chondelay) 
.................... {   
....................    if (dem_led<16) 
*
093E:  MOVF   53,W
0940:  SUBLW  0F
0942:  BNC   0972
....................    {    
....................       xuat_32led_don_2word(zp,zp); 
0944:  MOVFF  4A,88
0948:  MOVFF  49,87
094C:  MOVFF  4A,8A
0950:  MOVFF  49,89
0954:  RCALL  05F4
....................       zp= (zp>>1)+0x8000; 
0956:  BCF    FD8.0
0958:  RRCF   4A,W
095A:  MOVWF  x80
095C:  RRCF   49,W
095E:  MOVWF  49
0960:  MOVLW  80
0962:  ADDWF  x80,W
0964:  MOVWF  4A
....................       delay_chon(dl,chondelay); 
0966:  MOVFF  7D,7F
096A:  MOVFF  7E,80
096E:  RCALL  0746
....................    } 
0970:  BRA    099E
....................    else  if (dem_led<32) 
0972:  MOVF   53,W
0974:  SUBLW  1F
0976:  BNC   099C
....................    {   
....................       xuat_32led_don_2word(zp,zp); 
0978:  MOVFF  4A,88
097C:  MOVFF  49,87
0980:  MOVFF  4A,8A
0984:  MOVFF  49,89
0988:  RCALL  05F4
....................       zp= (zp>>1); 
098A:  BCF    FD8.0
098C:  RRCF   4A,F
098E:  RRCF   49,F
....................       delay_chon(dl,chondelay); 
0990:  MOVFF  7D,7F
0994:  MOVFF  7E,80
0998:  RCALL  0746
....................     } 
099A:  BRA    099E
....................    else reset_toan_bo_bien(); 
099C:  RCALL  0658
099E:  RETURN 0
....................        
.................... }    
.................... //xxxxxxxxxxxxxxxxxxxxxxxxxxxxxxxxxxxxxxxxxxxx 
.................... //32 led: 2nhom 16 led sang dan roi tat dan tu trai sang phai 
.................... //xxxxxxxxxxxxxxxxxxxxxxxxxxxxxxxxxxxxxxxxxxxx 
.................... void sang_tat_dan_trai_sang_phai_2x16led(unsigned int8 dl,chondelay) 
.................... {   
....................    if (dem_led<16) 
....................    {    
....................       xuat_32led_don_2word(zt,zt);   
....................       zt= (zt<<1)+1; 
....................       delay_chon(dl,chondelay); 
....................    } 
....................    else  if (dem_led<32) 
....................    {   
....................       xuat_32led_don_2word(zt,zt); 
....................       zt= (zt<<1); 
....................       delay_chon(dl,chondelay); 
....................     } 
....................    else reset_toan_bo_bien(); 
....................          
.................... }    
.................... //xxxxxxxxxxxxxxxxxxxxxxxxxxxxxxxxxxxxxxxxxxxx 
.................... //32 led: sang dan roi tat dan tu phai sang trai 
.................... //xxxxxxxxxxxxxxxxxxxxxxxxxxxxxxxxxxxxxxxxxxxx 
.................... void sang_tat_dan_pst_32led(unsigned int8 dl,chondelay) 
.................... {         
....................    if (dem_led<32) 
*
08BE:  MOVF   53,W
08C0:  SUBLW  1F
08C2:  BNC   090C
....................    {   
....................       xuat_32led_don_1dw(y); 
08C4:  MOVFF  34,82
08C8:  MOVFF  33,81
08CC:  MOVFF  32,80
08D0:  MOVFF  31,7F
08D4:  RCALL  0618
....................       y= (y<<1)+1; 
08D6:  BCF    FD8.0
08D8:  RLCF   31,W
08DA:  MOVWF  x80
08DC:  RLCF   32,W
08DE:  MOVWF  x81
08E0:  RLCF   33,W
08E2:  MOVWF  x82
08E4:  RLCF   34,W
08E6:  MOVWF  x83
08E8:  MOVLW  01
08EA:  ADDWF  x80,W
08EC:  MOVWF  31
08EE:  MOVLW  00
08F0:  ADDWFC x81,W
08F2:  MOVWF  32
08F4:  MOVLW  00
08F6:  ADDWFC x82,W
08F8:  MOVWF  33
08FA:  MOVLW  00
08FC:  ADDWFC x83,W
08FE:  MOVWF  34
....................       delay_chon(dl,chondelay); 
0900:  MOVFF  7D,7F
0904:  MOVFF  7E,80
0908:  RCALL  0746
....................    } 
090A:  BRA    093C
....................    else  if (dem_led<64) 
090C:  MOVF   53,W
090E:  SUBLW  3F
0910:  BNC   093A
....................    {   
....................       xuat_32led_don_1dw(y);    
0912:  MOVFF  34,82
0916:  MOVFF  33,81
091A:  MOVFF  32,80
091E:  MOVFF  31,7F
0922:  RCALL  0618
....................       y= (y<<1);  
0924:  BCF    FD8.0
0926:  RLCF   31,F
0928:  RLCF   32,F
092A:  RLCF   33,F
092C:  RLCF   34,F
....................       delay_chon(dl,chondelay); 
092E:  MOVFF  7D,7F
0932:  MOVFF  7E,80
0936:  RCALL  0746
....................    }  
0938:  BRA    093C
....................    else reset_toan_bo_bien(); 
093A:  RCALL  0658
093C:  RETURN 0
....................  
.................... }     
.................... //xxxxxxxxxxxxxxxxxxxxxxxxxxxxxxxxxxxxxxxxxxxx 
.................... //32 led: sang dan roi tat dan tu trai sang phai 
.................... //xxxxxxxxxxxxxxxxxxxxxxxxxxxxxxxxxxxxxxxxxxxx 
.................... void sang_tat_dan_tsp_32led(unsigned int8 dl,chondelay) 
.................... {            
....................       if (dem_led<32) 
*
09A0:  MOVF   53,W
09A2:  SUBLW  1F
09A4:  BNC   09E4
....................       {   
....................          xuat_32led_don_1dw(y); 
09A6:  MOVFF  34,82
09AA:  MOVFF  33,81
09AE:  MOVFF  32,80
09B2:  MOVFF  31,7F
09B6:  RCALL  0618
....................          y= (y>>1)+0x80000000;  
09B8:  BCF    FD8.0
09BA:  RRCF   34,W
09BC:  MOVWF  x83
09BE:  RRCF   33,W
09C0:  MOVWF  x82
09C2:  RRCF   32,W
09C4:  MOVWF  x81
09C6:  RRCF   31,W
09C8:  MOVWF  31
09CA:  MOVFF  81,32
09CE:  MOVFF  82,33
09D2:  MOVLW  80
09D4:  ADDWF  x83,W
09D6:  MOVWF  34
....................          delay_chon(dl,chondelay);       
09D8:  MOVFF  7D,7F
09DC:  MOVFF  7E,80
09E0:  RCALL  0746
....................       } 
09E2:  BRA    0A14
....................       else 
....................       if (dem_led<64) 
09E4:  MOVF   53,W
09E6:  SUBLW  3F
09E8:  BNC   0A12
....................       {   
....................          xuat_32led_don_1dw(y);  
09EA:  MOVFF  34,82
09EE:  MOVFF  33,81
09F2:  MOVFF  32,80
09F6:  MOVFF  31,7F
09FA:  RCALL  0618
....................          y= (y>>1); 
09FC:  BCF    FD8.0
09FE:  RRCF   34,F
0A00:  RRCF   33,F
0A02:  RRCF   32,F
0A04:  RRCF   31,F
....................          delay_chon(dl,chondelay); 
0A06:  MOVFF  7D,7F
0A0A:  MOVFF  7E,80
0A0E:  RCALL  0746
....................       }  
0A10:  BRA    0A14
....................       else reset_toan_bo_bien(); 
0A12:  RCALL  0658
0A14:  GOTO   0C80 (RETURN)
....................      
.................... }          
.................... //xxxxxxxxxxxxxxxxxxxxxxxxxxxxxxxxxxxxxxxxxxxx 
.................... //32 led: diem sang di chueyn tu phai sang trai 
.................... //xxxxxxxxxxxxxxxxxxxxxxxxxxxxxxxxxxxxxxxxxxxx 
.................... void diem_sang_di_chuyen_pst_32led(unsigned int8 dl,chondelay) 
.................... {         
....................    if (dem_led==0) 
....................    {   
....................       y=1; 
....................       xuat_32led_don_1dw(y); 
....................       y= (y<<1); 
....................       delay_chon(dl,chondelay); 
....................    } 
....................    else  if (dem_led<33) 
....................    {   
....................       xuat_32led_don_1dw(y);    
....................       y= (y<<1);  
....................       delay_chon(dl,chondelay); 
....................    }  
....................    else  reset_toan_bo_bien(); 
.................... }     
....................  
.................... //xxxxxxxxxxxxxxxxxxxxxxxxxxxxxxxxxxxxxxxxxxxx 
.................... //32 led: diem sang di chueyn tu trai sang phai 
.................... //xxxxxxxxxxxxxxxxxxxxxxxxxxxxxxxxxxxxxxxxxxxx 
.................... void diem_sang_di_chuyen_tsp_32led(unsigned int8 dl,chondelay) 
.................... {         
....................    if (dem_led==0) 
....................    {   
....................       y=0x80000000; 
....................       xuat_32led_don_1dw(y); 
....................       y= (y>>1); 
....................       delay_chon(dl,chondelay); 
....................    } 
....................    else  if (dem_led<33) 
....................    {   
....................       xuat_32led_don_1dw(y);    
....................       y= (y>>1);  
....................       delay_chon(dl,chondelay); 
....................    }  
....................    else reset_toan_bo_bien(); 
....................  
.................... }  
.................... //xxxxxxxxxxxxxxxxxxxxxxxxxxxxxxxxxxxxxxxxxxxx 
.................... //32 led: sang don  phai sang trai 
.................... //xxxxxxxxxxxxxxxxxxxxxxxxxxxxxxxxxxxxxxxxxxxx 
.................... void sang_don_pst_32led(unsigned int8 dl,chondelay) 
.................... {        
....................    if(i32>0) 
*
083C:  BTFSC  54.7
083E:  BRA    08BA
0840:  MOVF   54,W
0842:  SUBLW  00
0844:  BC    08BA
....................    { 
....................       if(j32<i32) 
0846:  MOVF   55,W
0848:  XORLW  80
084A:  MOVWF  00
084C:  MOVF   54,W
084E:  XORLW  80
0850:  SUBWF  00,W
0852:  BC    0894
....................       { 
....................          y = y_codinh|yp_chay; 
0854:  MOVF   3D,W
0856:  IORWF  35,W
0858:  MOVWF  31
085A:  MOVF   3E,W
085C:  IORWF  36,W
085E:  MOVWF  32
0860:  MOVF   3F,W
0862:  IORWF  37,W
0864:  MOVWF  33
0866:  MOVF   40,W
0868:  IORWF  38,W
086A:  MOVWF  34
....................          xuat_32led_don_1dw(y); 
086C:  MOVFF  34,82
0870:  MOVFF  33,81
0874:  MOVFF  32,80
0878:  MOVFF  31,7F
087C:  RCALL  0618
....................          delay_chon(dl,chondelay);        
087E:  MOVFF  7D,7F
0882:  MOVFF  7E,80
0886:  RCALL  0746
....................          yp_chay = yp_chay <<1; 
0888:  BCF    FD8.0
088A:  RLCF   35,F
088C:  RLCF   36,F
088E:  RLCF   37,F
0890:  RLCF   38,F
....................          j32++; 
0892:  INCF   55,F
....................       } 
....................       if (j32==i32)  
0894:  MOVF   54,W
0896:  SUBWF  55,W
0898:  BNZ   08B8
....................       { 
....................          i32--; 
089A:  DECF   54,F
....................          j32=0;          
089C:  CLRF   55
....................          y_codinh=y; 
089E:  MOVFF  34,40
08A2:  MOVFF  33,3F
08A6:  MOVFF  32,3E
08AA:  MOVFF  31,3D
....................          yp_chay = 1; 
08AE:  CLRF   38
08B0:  CLRF   37
08B2:  CLRF   36
08B4:  MOVLW  01
08B6:  MOVWF  35
....................       } 
....................    } 
08B8:  BRA    08BC
....................    else reset_toan_bo_bien(); 
08BA:  RCALL  0658
08BC:  RETURN 0
.................... }    
.................... //xxxxxxxxxxxxxxxxxxxxxxxxxxxxxxxxxxxxxxxxxxxx 
.................... //32 led: sang don  phai sang trai 
.................... //xxxxxxxxxxxxxxxxxxxxxxxxxxxxxxxxxxxxxxxxxxxx 
.................... void sang_don_tsp_32led(unsigned int8 dl,chondelay) 
.................... {        
....................    if(i32>0) 
....................    { 
....................       if(j32<i32) 
....................       { 
....................          y = y_codinh|yt_chay; 
....................          xuat_32led_don_1dw(y); 
....................          delay_chon(dl,chondelay); 
....................          yt_chay = yt_chay >>1; 
....................          j32++; 
....................       } 
....................       if (j32==i32)  
....................       { 
....................          i32--; 
....................          j32=0;          
....................          y_codinh=y; 
....................          yt_chay = 0x80000000; 
....................       } 
....................    } 
....................    else reset_toan_bo_bien(); 
....................  
.................... }   
.................... //xxxxxxxxxxxxxxxxxxxxxxxxxxxxxxxxxxxxxxxxxxxx 
.................... //32 led: sang don  tu ngoai vao 
.................... //xxxxxxxxxxxxxxxxxxxxxxxxxxxxxxxxxxxxxxxxxxxx 
.................... void sang_don_tnt_32led(unsigned int8 dl,chondelay) 
.................... {        
....................    if(i16>0) 
....................    { 
....................       if(j16<i16) 
....................       { 
....................          zp = zp_codinh|zp_chay_p; 
....................          zt = zt_codinh|zt_chay_t; 
....................          xuat_32led_don_2word(zt,zp); 
....................          delay_chon(dl,chondelay); 
....................  
....................          zp_chay_p = zp_chay_p <<1;          
....................          zt_chay_t = zt_chay_t >>1; 
....................          j16++; 
....................       } 
....................       if (j16==i16)  
....................       { 
....................          i16--; 
....................          j16=0;          
....................          zt_codinh=zt;  zp_codinh=zp;          
....................          zp_chay_p = 1;   zt_chay_t = 0x8000; 
....................       } 
....................    } 
....................    else reset_toan_bo_bien(); 
....................  
.................... }    
....................  
.................... //xxxxxxxxxxxxxxxxxxxxxxxxxxxxxxxxxxxxxxxxxxxx 
.................... //32 led: sang don  tu ngoai vao 
.................... //xxxxxxxxxxxxxxxxxxxxxxxxxxxxxxxxxxxxxxxxxxxx 
.................... void sang_don_ttr_32led(unsigned int8 dl,chondelay) 
.................... {        
....................    if(i16>0) 
....................    { 
....................       if(j16<i16) 
....................       { 
....................          zp = zp_codinh|zp_chay_t; 
....................          zt = zt_codinh|zt_chay_p; 
....................          xuat_32led_don_2word(zt,zp); 
....................          delay_chon(dl,chondelay); 
....................          zp_chay_t = zp_chay_t >>1;          
....................          zt_chay_p = zt_chay_p <<1; 
....................          j16++; 
....................       } 
....................       if (j16==i16)  
....................       { 
....................          i16--; 
....................          j16=0;          
....................          zt_codinh=zt;   
....................          zp_codinh=zp; 
....................          zp_chay_t = 0x8000;   zt_chay_p = 1; 
....................       } 
....................    } 
....................    else reset_toan_bo_bien(); 
.................... }    
....................  
.................... #include "18F4550.h" 
.................... //////////// Standard Header file for the PIC18F4550 device //////////////// 
.................... /////////////////////////////////////////////////////////////////////////// 
.................... ////        (C) Copyright 1996, 2014 Custom Computer Services          //// 
.................... //// This source code may only be used by licensed users of the CCS C  //// 
.................... //// compiler.  This source code may only be distributed to other      //// 
.................... //// licensed users of the CCS C compiler.  No other use, reproduction //// 
.................... //// or distribution is permitted without written permission.          //// 
.................... //// Derivative programs created using this software in object code    //// 
.................... //// form are not restricted in any way.                               //// 
.................... /////////////////////////////////////////////////////////////////////////// 
.................... #device PIC18F4550 
....................  
.................... #list 
....................  
....................  
.................... signed int8 giay,bdn,phut,gio,dem_tg_exit = 0; 
.................... int8 mode = 0; 
.................... unsigned int16 count = 0,countT = 0; 
....................  
.................... #int_timer1 
.................... void interrupt_timer1(){ 
....................    bdn++; 
*
00E8:  INCF   x74,F
....................    set_timer1(3036); //3036 
00EA:  MOVLW  0B
00EC:  MOVWF  FCF
00EE:  MOVLW  DC
00F0:  MOVWF  FCE
00F2:  BCF    F9E.0
00F4:  GOTO   0060
.................... } 
....................  
.................... void giai_ma(){ 
....................    led_7dq[0] = ma7doan[giay%10]; 
*
015E:  MOVFF  73,7D
0162:  MOVLW  0A
0164:  MOVWF  x7E
0166:  RCALL  0116
0168:  CLRF   03
016A:  MOVF   00,W
016C:  RCALL  00AE
016E:  MOVWF  26
....................    led_7dq[1] = ma7doan[giay/10]; 
0170:  MOVFF  73,7D
0174:  MOVLW  0A
0176:  MOVWF  x7E
0178:  RCALL  0116
017A:  CLRF   03
017C:  MOVF   01,W
017E:  RCALL  00AE
0180:  MOVWF  27
....................    led_7dq[3] = ma7doan[phut%10]; 
0182:  MOVFF  75,7D
0186:  MOVLW  0A
0188:  MOVWF  x7E
018A:  RCALL  0116
018C:  CLRF   03
018E:  MOVF   00,W
0190:  RCALL  00AE
0192:  MOVWF  29
....................    led_7dq[4] = ma7doan[phut/10]; 
0194:  MOVFF  75,7D
0198:  MOVLW  0A
019A:  MOVWF  x7E
019C:  RCALL  0116
019E:  CLRF   03
01A0:  MOVF   01,W
01A2:  RCALL  00AE
01A4:  MOVWF  2A
....................    led_7dq[6] = ma7doan[gio%10]; 
01A6:  MOVFF  76,7D
01AA:  MOVLW  0A
01AC:  MOVWF  x7E
01AE:  RCALL  0116
01B0:  CLRF   03
01B2:  MOVF   00,W
01B4:  RCALL  00AE
01B6:  MOVWF  2C
....................    led_7dq[7] = ma7doan[gio/10]; 
01B8:  MOVFF  76,7D
01BC:  MOVLW  0A
01BE:  MOVWF  x7E
01C0:  RCALL  0116
01C2:  CLRF   03
01C4:  MOVF   01,W
01C6:  RCALL  00AE
01C8:  MOVWF  2D
....................    if (mode == 1) led_7dq[0] = led_7dq[0] & 0x7f; 
01CA:  DECFSZ x78,W
01CC:  BRA    01D2
01CE:  BCF    26.7
01D0:  BRA    01E4
....................    else if (mode == 2) led_7dq[3] = led_7dq[3] & 0x7f; 
01D2:  MOVF   x78,W
01D4:  SUBLW  02
01D6:  BNZ   01DC
01D8:  BCF    29.7
01DA:  BRA    01E4
....................    else if (mode == 3) led_7dq[6] = led_7dq[6] & 0x7f; 
01DC:  MOVF   x78,W
01DE:  SUBLW  03
01E0:  BNZ   01E4
01E2:  BCF    2C.7
01E4:  RETURN 0
.................... } 
....................  
.................... void phim_up(){ 
....................    if (phim_bt0(5)) { 
*
031C:  CLRF   x7E
031E:  MOVLW  05
0320:  MOVWF  x7D
0322:  BRA    02F0
0324:  MOVF   01,F
0326:  BZ    0366
....................          dem_tg_exit = 0; 
0328:  CLRF   x77
....................          switch (mode) 
032A:  MOVF   x78,W
032C:  XORLW  01
032E:  BZ    033A
0330:  XORLW  03
0332:  BZ    0348
0334:  XORLW  01
0336:  BZ    0356
0338:  BRA    0364
....................          { 
....................             case 1: if (giay==59) giay =0; 
033A:  MOVF   x73,W
033C:  SUBLW  3B
033E:  BNZ   0344
0340:  CLRF   x73
0342:  BRA    0346
....................                     else giay++; 
0344:  INCF   x73,F
....................                     break; 
0346:  BRA    0364
....................             case 2: if (phut == 59) phut = 0; 
0348:  MOVF   x75,W
034A:  SUBLW  3B
034C:  BNZ   0352
034E:  CLRF   x75
0350:  BRA    0354
....................                     else phut++; 
0352:  INCF   x75,F
....................                     break; 
0354:  BRA    0364
....................             case 3: if (gio == 23) gio = 0; 
0356:  MOVF   x76,W
0358:  SUBLW  17
035A:  BNZ   0360
035C:  CLRF   x76
035E:  BRA    0362
....................                     else gio ++; 
0360:  INCF   x76,F
....................                     break; 
0362:  BRA    0364
....................             default: break; 
....................          } 
....................          giai_ma(); 
0364:  RCALL  015E
....................    } 
0366:  GOTO   0B68 (RETURN)
.................... } 
....................  
.................... void phim_dw(){ 
....................    if (phim_bt1(5)) { 
*
0396:  CLRF   x7E
0398:  MOVLW  05
039A:  MOVWF  x7D
039C:  BRA    036A
039E:  MOVF   01,F
03A0:  BZ    03DE
....................          switch (mode) 
03A2:  MOVF   x78,W
03A4:  XORLW  01
03A6:  BZ    03B2
03A8:  XORLW  03
03AA:  BZ    03C0
03AC:  XORLW  01
03AE:  BZ    03CE
03B0:  BRA    03DC
....................          { 
....................             case 1: if (giay==0) giay =59; 
03B2:  MOVF   x73,F
03B4:  BNZ   03BC
03B6:  MOVLW  3B
03B8:  MOVWF  x73
03BA:  BRA    03BE
....................                     else giay--; 
03BC:  DECF   x73,F
....................                     break; 
03BE:  BRA    03DC
....................             case 2: if (phut == 0) phut = 59; 
03C0:  MOVF   x75,F
03C2:  BNZ   03CA
03C4:  MOVLW  3B
03C6:  MOVWF  x75
03C8:  BRA    03CC
....................                     else phut--; 
03CA:  DECF   x75,F
....................                     break; 
03CC:  BRA    03DC
....................             case 3: if (gio == 0) gio = 23; 
03CE:  MOVF   x76,F
03D0:  BNZ   03D8
03D2:  MOVLW  17
03D4:  MOVWF  x76
03D6:  BRA    03DA
....................                     else gio--; 
03D8:  DECF   x76,F
....................                     break; 
03DA:  BRA    03DC
....................             default: break;         
....................          } 
....................          giai_ma(); 
03DC:  RCALL  015E
....................    } 
03DE:  GOTO   0B6A (RETURN)
.................... } 
....................  
.................... void phim_mode(){ 
....................    if (phim_bt2(5)) { 
*
040E:  CLRF   x7E
0410:  MOVLW  05
0412:  MOVWF  x7D
0414:  BRA    03E2
0416:  MOVF   01,F
0418:  BZ    0428
....................          mode++; 
041A:  INCF   x78,F
....................          if (mode  >= 4){ 
041C:  MOVF   x78,W
041E:  SUBLW  03
0420:  BC    0424
....................             mode = 0; 
0422:  CLRF   x78
....................          } 
....................          dem_tg_exit = 0; 
0424:  CLRF   x77
....................          giai_ma(); 
0426:  RCALL  015E
....................       } 
0428:  GOTO   0B6C (RETURN)
.................... } 
....................  
.................... void tat_2_led_chinh(){ 
....................    if (mode == 1) {led_7dq[0] &= 0xff; led_7dq[1] &= 0xff;} 
*
01E6:  DECFSZ x78,W
01E8:  BRA    01EC
01EA:  BRA    01FA
....................    else if (mode == 2) {led_7dq[3] &= 0xff; led_7dq[4] &= 0xff;} 
01EC:  MOVF   x78,W
01EE:  SUBLW  02
01F0:  BNZ   01F4
01F2:  BRA    01FA
....................    else if (mode == 3) {led_7dq[6] &= 0xff; led_7dq[7] &= 0xff;}    
01F4:  MOVF   x78,W
01F6:  SUBLW  03
01F8:  BNZ   01FA
01FA:  GOTO   0B60 (RETURN)
.................... } 
....................  
.................... void main() 
*
0A18:  CLRF   FF8
0A1A:  BCF    FD0.7
0A1C:  BSF    07.7
0A1E:  BSF    F93.1
0A20:  BSF    F93.0
0A22:  MOVLW  31
0A24:  MOVWF  FC8
0A26:  MOVLW  28
0A28:  MOVWF  FC6
0A2A:  BSF    FC7.7
0A2C:  BCF    FC7.6
0A2E:  CLRF   1B
0A30:  CLRF   22
0A32:  CLRF   23
0A34:  CLRF   24
0A36:  CLRF   25
0A38:  CLRF   2E
0A3A:  CLRF   2F
0A3C:  CLRF   30
0A3E:  CLRF   34
0A40:  CLRF   33
0A42:  CLRF   32
0A44:  CLRF   31
0A46:  CLRF   38
0A48:  CLRF   37
0A4A:  CLRF   36
0A4C:  MOVLW  01
0A4E:  MOVWF  35
0A50:  MOVLW  80
0A52:  MOVWF  3C
0A54:  CLRF   3B
0A56:  CLRF   3A
0A58:  CLRF   39
0A5A:  CLRF   40
0A5C:  CLRF   3F
0A5E:  CLRF   3E
0A60:  CLRF   3D
0A62:  MOVWF  44
0A64:  CLRF   43
0A66:  CLRF   46
0A68:  MOVLW  01
0A6A:  MOVWF  45
0A6C:  CLRF   48
0A6E:  CLRF   47
0A70:  MOVLW  80
0A72:  MOVWF  4C
0A74:  CLRF   4B
0A76:  CLRF   4E
0A78:  MOVLW  01
0A7A:  MOVWF  4D
0A7C:  CLRF   50
0A7E:  CLRF   4F
0A80:  CLRF   52
0A82:  CLRF   51
0A84:  CLRF   53
0A86:  MOVLW  20
0A88:  MOVWF  54
0A8A:  CLRF   55
0A8C:  MOVLW  01
0A8E:  MOVWF  56
0A90:  MOVLW  10
0A92:  MOVWF  57
0A94:  CLRF   58
0A96:  CLRF   5C
0A98:  CLRF   5B
0A9A:  CLRF   5A
0A9C:  MOVLW  01
0A9E:  MOVWF  59
0AA0:  CLRF   x60
0AA2:  CLRF   5F
0AA4:  CLRF   5E
0AA6:  MOVWF  5D
0AA8:  SETF   x64
0AAA:  SETF   x63
0AAC:  SETF   x62
0AAE:  MOVLW  FE
0AB0:  MOVWF  x61
0AB2:  MOVLW  80
0AB4:  MOVWF  x68
0AB6:  CLRF   x67
0AB8:  CLRF   x66
0ABA:  CLRF   x65
0ABC:  MOVWF  x6C
0ABE:  CLRF   x6B
0AC0:  CLRF   x6A
0AC2:  CLRF   x69
0AC4:  MOVLW  7F
0AC6:  MOVWF  x70
0AC8:  SETF   x6F
0ACA:  SETF   x6E
0ACC:  SETF   x6D
0ACE:  MOVLW  01
0AD0:  MOVWF  x71
0AD2:  MOVWF  x72
0AD4:  CLRF   x77
0AD6:  CLRF   x78
0AD8:  CLRF   x7A
0ADA:  CLRF   x79
0ADC:  CLRF   x7C
0ADE:  CLRF   x7B
0AE0:  MOVF   FC1,W
0AE2:  ANDLW  C0
0AE4:  IORLW  0F
0AE6:  MOVWF  FC1
0AE8:  MOVLW  07
0AEA:  MOVWF  FB4
0AEC:  SETF   26
0AEE:  SETF   27
0AF0:  SETF   28
0AF2:  SETF   29
0AF4:  SETF   2A
0AF6:  SETF   2B
0AF8:  SETF   2C
0AFA:  SETF   2D
.................... { 
....................    set_up_port_ic_chot(); 
0AFC:  GOTO   00F8
....................    set_tris_b(0x3c); 
0B00:  MOVLW  3C
0B02:  MOVWF  F93
....................    setup_timer_0(T0_EXT_L_TO_H|T0_DIV_1); 
0B04:  MOVLW  A8
0B06:  MOVWF  FD5
....................    set_timer0(0);    
0B08:  CLRF   FD7
0B0A:  CLRF   FD6
....................    setup_timer_1(T1_INTERNAL|T1_DIV_BY_1); 
0B0C:  MOVLW  85
0B0E:  MOVWF  FCD
....................    set_timer1(3036); // 3036 
0B10:  MOVLW  0B
0B12:  MOVWF  FCF
0B14:  MOVLW  DC
0B16:  MOVWF  FCE
....................    enable_interrupts(GLOBAL); 
0B18:  MOVLW  C0
0B1A:  IORWF  FF2,F
....................    enable_interrupts(INT_TIMER1); 
0B1C:  BSF    F9D.0
....................    giay = 0; 
0B1E:  CLRF   x73
....................    bdn = 0; 
0B20:  CLRF   x74
....................    phut = 0; 
0B22:  CLRF   x75
....................    gio = 0; 
0B24:  CLRF   x76
....................    giai_ma(); 
0B26:  CALL   015E
....................    while(TRUE) 
....................    { 
....................       if (bdn<100) { 
0B2A:  BTFSC  x74.7
0B2C:  BRA    0B36
0B2E:  MOVF   x74,W
0B30:  SUBLW  63
0B32:  BTFSS  FD8.0
0B34:  BRA    0CA0
....................          if (mode !=0) 
0B36:  MOVF   x78,F
0B38:  BZ    0B60
....................          { 
....................             if ((bdn == 0) && (input(bt0)) && (input(bt1)) && (input(bt2))) tat_2_led_chinh(); 
0B3A:  MOVF   x74,F
0B3C:  BNZ   0B56
0B3E:  BSF    F93.5
0B40:  BTFSS  F81.5
0B42:  BRA    0B56
0B44:  BSF    F93.4
0B46:  BTFSS  F81.4
0B48:  BRA    0B56
0B4A:  BSF    F93.3
0B4C:  BTFSS  F81.3
0B4E:  BRA    0B56
0B50:  GOTO   01E6
0B54:  BRA    0B60
....................             else if (bdn == 80) giai_ma(); 
0B56:  MOVF   x74,W
0B58:  SUBLW  50
0B5A:  BTFSC  FD8.2
0B5C:  CALL   015E
....................          } 
....................          hien_thi_8led_7doan_quet_all(); 
0B60:  CALL   02BE
....................          phim_up(); 
0B64:  GOTO   031C
....................          phim_dw(); 
0B68:  BRA    0396
....................          phim_mode();          
0B6A:  BRA    040E
....................          count = get_timer0(); 
0B6C:  MOVF   FD6,W
0B6E:  MOVWF  x79
0B70:  MOVFF  FD7,7A
....................          if (count != countT) { 
0B74:  MOVF   x7B,W
0B76:  SUBWF  x79,W
0B78:  BNZ   0B80
0B7A:  MOVF   x7C,W
0B7C:  SUBWF  x7A,W
0B7E:  BZ    0BA2
....................             countT = count; 
0B80:  MOVFF  7A,7C
0B84:  MOVFF  79,7B
....................             xuat_4led_7doan_giaima_xoa_so0(count); 
0B88:  MOVFF  7A,7E
0B8C:  MOVFF  79,7D
0B90:  BRA    04C8
....................             if (count >= 101) set_timer0(1); 
0B92:  MOVF   x7A,F
0B94:  BNZ   0B9C
0B96:  MOVF   x79,W
0B98:  SUBLW  64
0B9A:  BC    0BA2
0B9C:  CLRF   FD7
0B9E:  MOVLW  01
0BA0:  MOVWF  FD6
....................          } 
....................          if(ttct_td==1) sang_tat_32led(10,1); 
0BA2:  DECFSZ 56,W
0BA4:  BRA    0BB0
0BA6:  MOVLW  0A
0BA8:  MOVWF  x7D
0BAA:  MOVLW  01
0BAC:  MOVWF  x7E
0BAE:  RCALL  075A
....................          if(ttct_td==2) sang_tat_dan_ngoai_vao_32led(10,1); 
0BB0:  MOVF   56,W
0BB2:  SUBLW  02
0BB4:  BNZ   0BC0
0BB6:  MOVLW  0A
0BB8:  MOVWF  x7D
0BBA:  MOVLW  01
0BBC:  MOVWF  x7E
0BBE:  RCALL  07BE
....................          if(ttct_td==3) sang_don_pst_32led(10,1); 
0BC0:  MOVF   56,W
0BC2:  SUBLW  03
0BC4:  BNZ   0BD0
0BC6:  MOVLW  0A
0BC8:  MOVWF  x7D
0BCA:  MOVLW  01
0BCC:  MOVWF  x7E
0BCE:  RCALL  083C
....................          if(ttct_td==4) sang_tat_dan_pst_32led(10,1); 
0BD0:  MOVF   56,W
0BD2:  SUBLW  04
0BD4:  BNZ   0BE0
0BD6:  MOVLW  0A
0BD8:  MOVWF  x7D
0BDA:  MOVLW  01
0BDC:  MOVWF  x7E
0BDE:  RCALL  08BE
....................          if(ttct_td==5) sang_tat_dan_phai_sang_trai_2x16led(10,1); 
0BE0:  MOVF   56,W
0BE2:  SUBLW  05
0BE4:  BNZ   0BF0
0BE6:  MOVLW  0A
0BE8:  MOVWF  x7D
0BEA:  MOVLW  01
0BEC:  MOVWF  x7E
0BEE:  RCALL  093E
....................          if(ttct_td==6) sang_don_pst_32led(10,1); 
0BF0:  MOVF   56,W
0BF2:  SUBLW  06
0BF4:  BNZ   0C00
0BF6:  MOVLW  0A
0BF8:  MOVWF  x7D
0BFA:  MOVLW  01
0BFC:  MOVWF  x7E
0BFE:  RCALL  083C
....................          if(ttct_td==7) sang_don_pst_32led(10,1); 
0C00:  MOVF   56,W
0C02:  SUBLW  07
0C04:  BNZ   0C10
0C06:  MOVLW  0A
0C08:  MOVWF  x7D
0C0A:  MOVLW  01
0C0C:  MOVWF  x7E
0C0E:  RCALL  083C
....................          if(ttct_td==8) sang_tat_32led(10,1); 
0C10:  MOVF   56,W
0C12:  SUBLW  08
0C14:  BNZ   0C20
0C16:  MOVLW  0A
0C18:  MOVWF  x7D
0C1A:  MOVLW  01
0C1C:  MOVWF  x7E
0C1E:  RCALL  075A
....................          if(ttct_td==9) sang_tat_dan_ngoai_vao_32led(10,1); 
0C20:  MOVF   56,W
0C22:  SUBLW  09
0C24:  BNZ   0C30
0C26:  MOVLW  0A
0C28:  MOVWF  x7D
0C2A:  MOVLW  01
0C2C:  MOVWF  x7E
0C2E:  RCALL  07BE
....................          if(ttct_td==10) sang_don_pst_32led(10,1); 
0C30:  MOVF   56,W
0C32:  SUBLW  0A
0C34:  BNZ   0C40
0C36:  MOVLW  0A
0C38:  MOVWF  x7D
0C3A:  MOVLW  01
0C3C:  MOVWF  x7E
0C3E:  RCALL  083C
....................          if(ttct_td==11) sang_tat_dan_pst_32led(10,1); 
0C40:  MOVF   56,W
0C42:  SUBLW  0B
0C44:  BNZ   0C50
0C46:  MOVLW  0A
0C48:  MOVWF  x7D
0C4A:  MOVLW  01
0C4C:  MOVWF  x7E
0C4E:  RCALL  08BE
....................          if(ttct_td==12) sang_tat_dan_phai_sang_trai_2x16led(10,1); 
0C50:  MOVF   56,W
0C52:  SUBLW  0C
0C54:  BNZ   0C60
0C56:  MOVLW  0A
0C58:  MOVWF  x7D
0C5A:  MOVLW  01
0C5C:  MOVWF  x7E
0C5E:  RCALL  093E
....................          if(ttct_td==13) sang_tat_dan_pst_32led(10,1); 
0C60:  MOVF   56,W
0C62:  SUBLW  0D
0C64:  BNZ   0C70
0C66:  MOVLW  0A
0C68:  MOVWF  x7D
0C6A:  MOVLW  01
0C6C:  MOVWF  x7E
0C6E:  RCALL  08BE
....................          if(ttct_td==14) sang_tat_dan_tsp_32led(10,1); 
0C70:  MOVF   56,W
0C72:  SUBLW  0E
0C74:  BNZ   0C80
0C76:  MOVLW  0A
0C78:  MOVWF  x7D
0C7A:  MOVLW  01
0C7C:  MOVWF  x7E
0C7E:  BRA    09A0
....................          if(ttct_td==15) sang_don_pst_32led(10,1); 
0C80:  MOVF   56,W
0C82:  SUBLW  0F
0C84:  BNZ   0C90
0C86:  MOVLW  0A
0C88:  MOVWF  x7D
0C8A:  MOVLW  01
0C8C:  MOVWF  x7E
0C8E:  RCALL  083C
....................          if(ttct_td>15) ttct_td =1; 
0C90:  BTFSC  56.7
0C92:  BRA    0C9E
0C94:  MOVF   56,W
0C96:  SUBLW  0F
0C98:  BC    0C9E
0C9A:  MOVLW  01
0C9C:  MOVWF  56
....................           
....................  
....................       } 
0C9E:  BRA    0CD0
....................       else  
....................       { 
....................          bdn = bdn -10; 
0CA0:  MOVLW  0A
0CA2:  SUBWF  x74,F
....................          dem_tg_exit++; 
0CA4:  INCF   x77,F
....................          if (dem_tg_exit == 20) mode = 0; 
0CA6:  MOVF   x77,W
0CA8:  SUBLW  14
0CAA:  BNZ   0CAE
0CAC:  CLRF   x78
....................          giay++; 
0CAE:  INCF   x73,F
....................             if (giay==60) { giay = 0; phut++; 
0CB0:  MOVF   x73,W
0CB2:  SUBLW  3C
0CB4:  BNZ   0CCC
0CB6:  CLRF   x73
0CB8:  INCF   x75,F
....................                if (phut == 60) { phut = 0; gio++;  
0CBA:  MOVF   x75,W
0CBC:  SUBLW  3C
0CBE:  BNZ   0CCC
0CC0:  CLRF   x75
0CC2:  INCF   x76,F
....................                   if (gio == 24) gio = 0; 
0CC4:  MOVF   x76,W
0CC6:  SUBLW  18
0CC8:  BNZ   0CCC
0CCA:  CLRF   x76
....................                }  
....................             } 
....................          giai_ma(); 
0CCC:  CALL   015E
....................       } 
0CD0:  BRA    0B2A
....................    }            
.................... } 
....................  
0CD2:  SLEEP 

Configuration Fuses:
   Word  1: CC27   PLL12 CPUDIV1 USBDIV HS FCMEN IESO
   Word  2: 1E3E   PUT BROWNOUT BORV21 VREGEN NOWDT WDT32768
   Word  3: 8700   CCP2C1 PBADEN LPT1OSC MCLR
   Word  4: 00A1   STVREN NOLVP ICSP2 NOXINST NODEBUG
   Word  5: C00F   NOPROTECT NOCPB NOCPD
   Word  6: E00F   NOWRT NOWRTC NOWRTB NOWRTD
   Word  7: 400F   NOEBTR NOEBTRB
