CCS PCH C Compiler, Version 5.078, 43599               26-Oct-20 17:05

               Filename:   D:\Document\TTVXL\TH_VDK_PIC_N1_SANG_THU_2\WEEK4\423s\423s.lst

               ROM used:   2444 bytes (7%)
                           Largest free fragment is 30324
               RAM used:   108 (5%) at main() level
                           133 (6%) worst case
               Stack used: 5 locations
               Stack size: 31

*
0000:  GOTO   06F4
.................... #include "TV_PICKIT2_SHIFT_1.c" 
.................... #include    <18f4550.h> 
.................... //////////// Standard Header file for the PIC18F4550 device //////////////// 
.................... /////////////////////////////////////////////////////////////////////////// 
.................... ////        (C) Copyright 1996, 2014 Custom Computer Services          //// 
.................... //// This source code may only be used by licensed users of the CCS C  //// 
.................... //// compiler.  This source code may only be distributed to other      //// 
.................... //// licensed users of the CCS C compiler.  No other use, reproduction //// 
.................... //// or distribution is permitted without written permission.          //// 
.................... //// Derivative programs created using this software in object code    //// 
.................... //// form are not restricted in any way.                               //// 
.................... /////////////////////////////////////////////////////////////////////////// 
.................... #device PIC18F4550 
0004:  CLRF   FF7
0006:  ADDLW  14
0008:  MOVWF  FF6
000A:  MOVLW  00
000C:  ADDWFC FF7,F
000E:  TBLRD*+
0010:  MOVF   FF5,W
0012:  RETURN 0
0014:  DATA C0,F9
0016:  DATA A4,B0
0018:  DATA 99,92
001A:  DATA 82,F8
001C:  DATA 80,90
001E:  DATA 88,83
0020:  DATA C6,A1
0022:  DATA 86,8E
0024:  CLRF   FF7
0026:  ADDLW  34
0028:  MOVWF  FF6
002A:  MOVLW  00
002C:  ADDWFC FF7,F
002E:  TBLRD*+
0030:  MOVF   FF5,W
0032:  RETURN 0
0034:  DATA 7F,BF
0036:  DATA DF,EF
0038:  DATA F7,FB
003A:  DATA FD,FE
*
00B6:  CLRF   01
00B8:  CLRF   02
00BA:  CLRF   00
00BC:  CLRF   03
00BE:  MOVF   x73,W
00C0:  BNZ   00C6
00C2:  MOVF   x72,W
00C4:  BZ    00F6
00C6:  MOVLW  10
00C8:  MOVWF  x74
00CA:  BCF    FD8.0
00CC:  RLCF   x70,F
00CE:  RLCF   x71,F
00D0:  RLCF   00,F
00D2:  RLCF   03,F
00D4:  MOVF   x73,W
00D6:  SUBWF  03,W
00D8:  BNZ   00DE
00DA:  MOVF   x72,W
00DC:  SUBWF  00,W
00DE:  BNC   00EE
00E0:  MOVF   x72,W
00E2:  SUBWF  00,F
00E4:  BTFSS  FD8.0
00E6:  DECF   03,F
00E8:  MOVF   x73,W
00EA:  SUBWF  03,F
00EC:  BSF    FD8.0
00EE:  RLCF   01,F
00F0:  RLCF   02,F
00F2:  DECFSZ x74,F
00F4:  BRA    00CA
00F6:  RETURN 0
....................  
.................... #list 
....................  
.................... #device     adc=10 
.................... #fuses      nowdt,put,hs,noprotect,nolvp,cpudiv1 
.................... #use        delay(clock=20000000) 
*
005A:  CLRF   FEA
005C:  MOVLW  71
005E:  MOVWF  FE9
0060:  MOVF   FEF,W
0062:  BZ    007E
0064:  MOVLW  06
0066:  MOVWF  01
0068:  CLRF   00
006A:  DECFSZ 00,F
006C:  BRA    006A
006E:  DECFSZ 01,F
0070:  BRA    0068
0072:  MOVLW  7B
0074:  MOVWF  00
0076:  DECFSZ 00,F
0078:  BRA    0076
007A:  DECFSZ FEF,F
007C:  BRA    0064
007E:  RETURN 0
.................... #use        i2c(master,slow,sda=pin_b0,scl=pin_b1) 
....................  
.................... //#use        rs232(baud=9600, xmit=pin_c6,rcv=pin_c7) 
.................... //nut nhan: 
.................... #define  bt0     pin_b5 
.................... #define  bt1     pin_b4 
.................... #define  bt2     pin_b3 
.................... #define  bt3     pin_b2 
....................  
.................... #define  on      bt0       //dk led don, motor 
.................... #define  off     bt1 
.................... #define  inv     bt2 
....................  
.................... #define  up      bt0    //dk led don 
.................... #define  dw      bt1 
.................... #define  clr     bt2 
.................... #define  mod     bt3 
....................  
.................... #define  stop    bt3 
....................  
.................... #define  on1     bt0      
.................... #define  off1    bt1 
.................... #define  on2     bt2        
.................... #define  off2    bt3 
....................  
....................  
.................... #define     trigger      pin_e2 
.................... #define     echo         pin_e1 
.................... //   ic74138_a    pin_b6   //output giai ma 2 sang 4 tich cuc muc 0 
.................... //   ic74138_b    pin_b7   //output giai ma 2 sang 4 tich cuc muc 0 
....................  
.................... //          encoder  pin_c0   //rc0/t13cki 
....................  
.................... //          cb_kc    pin_a2   //ra2/an2 
.................... //          pir      pin_a3   //ra3/an3 
.................... //          cbxung   pin_a4   //ra4/t0cki 
.................... //          ledthu   pin_a4   //ra4/t0cki//sw802 
....................  
.................... //          cb_kcsa_trigger  pin_e2   //re2/sdo  dung chung 
.................... //          cb_kcsa_rcho     pin_e1   //re1 
....................  
.................... //          cb_tcs3200_out    pin_e1   //re1 //cam bien mau tcs3200 
.................... //          cb_tcs3200_s0     b12      //lay tu mbi5026 
.................... //          cb_tcs3200_s1     b13      //lay tu mbi5026 
.................... //          cb_tcs3200_s2     b14      //lay tu mbi5026 
.................... //          cb_tcs3200_s3     b15      //lay tu mbi5026 
....................  
.................... //          cb_power  sw803 
.................... //          cb_gas      ain3_pcf8591t   //re1 
.................... //          cb_quang    ain2_pcf8591t    
.................... //          cb_lm35b    ain1_pcf8591t   //ra1/an1 
.................... //          cb_lm35a    ain0_pcf8591t   //re1/an0 
....................  
.................... //xxxxxxxxxxxxxxxxxxxxxxxxxxxxxxxxxxxxxxxxxxxxxxxxx 
.................... #define      enable_573a      pin_d1         //cs0 cua a 
.................... #define      enable_573b      pin_d0         //cs1 cua b 
.................... //xxxxxxxxxxxxxxxxxxxxxxxxxxxxxxxxxxxxxxxxxxxxxxxxx 
.................... #define      ssdo             pin_e2         //chung tat ca 
.................... #define      ssck             pin_e0         //chung tat ca 
.................... //xxxxxxxxxxxxxxxxxxxxxxxxxxxxxxxxxxxxxxxxxxxxxxxxx 
.................... #define      rck_4led7doan    pin_d7         //a - 4 byte 
.................... #define      g_4led7doan      pin_d6         //a - 4 byte 
.................... //xxxxxxxxxxxxxxxxxxxxxxxxxxxxxxxxxxxxxxxxxxxx     
.................... #define      rck_matranled    pin_d7         //b - 3 byte dao 
.................... #define      g_matranled      pin_d6         //b - 3 byte dao 
.................... //xxxxxxxxxxxxxxxxxxxxxxxxxxxxxxxxxxxxxxxxxxxxxxxxx 
.................... #define      rck_32led        pin_d5         //a - 4 byte 
.................... #define      g_32led          pin_d4         //a - 4 byte 
.................... //xxxxxxxxxxxxxxxxxxxxxxxxxxxxxxxxxxxxxxxxxxxx  
.................... #define      rck_8ledquet     pin_d5         //b - 2 byte dao 
.................... #define      g_8ledquet       pin_d4         //b - 2 byte dao 
.................... //xxxxxxxxxxxxxxxxxxxxxxxxxxxxxxxxxxxxxxxxxxxxxxxxx 
.................... #define      rck_lcd20x4      pin_d3         //a - 2 byte dao 
.................... #define      g_lcd20x4         pin_d2         //a - 2 byte dao 
.................... //xxxxxxxxxxxxxxxxxxxxxxxxxxxxxxxxxxxxxxxxxxxx  
.................... #define      rck_buzerelay    pin_d3     //b - 1 byte  
.................... #define      g_buzerelay      pin_d2         //b - 1 byte  
....................  
.................... void xuat_lcd20x4(unsigned int8 lcd_signal,lcd_ins_hthi); 
....................  
.................... void xuat_buzzer_relay(); 
.................... //xxxxxxxxxxxxxxxxxxxxxxxxxxxxxxxxxxxxxxxxxxxx    
.................... #define     chot_2_ic_74573_a_b  output_d(0xfc) 
....................  
.................... unsigned int8 tin_hieu_dk_74573_a; 
.................... #bit g_4a         = tin_hieu_dk_74573_a.6 
.................... #bit g_32a        = tin_hieu_dk_74573_a.4 
.................... #bit g_lcda       = tin_hieu_dk_74573_a.2 
.................... //xxxxxxxxxxxxxxxxxxxxxxxxxxxxxxxxxxxxxxxxxxxx          
.................... #define     mo_32_led_don        g_32a=0; //output_low(g_32led)  
.................... #define     tat_32_led_don       g_32a=1; //output_high(g_32led)  
.................... //xxxxxxxxxxxxxxxxxxxxxxxxxxxxxxxxxxxxxxxxxxxx          
.................... #define     mo_4_led_7doan       g_4a=0;  //output_low(g_4led7doan) 
.................... #define     tat_4_led_7doan      g_4a=1;  //output_high(g_4led7doan) 
.................... //xxxxxxxxxxxxxxxxxxxxxxxxxxxxxxxxxxxxxxxxxxxx  
.................... #define     mo_glcd_lcd           g_lcda=0;   //output_low(g_lcd20x4) 
.................... #define     tat_glcd_lcd          g_lcda=1;   // output_low(g_lcd20x4) 
....................  
.................... unsigned int8 tin_hieu_dk_74573_b;   
.................... #bit g_mtb        = tin_hieu_dk_74573_b.6 
.................... #bit g_8b         = tin_hieu_dk_74573_b.4 
.................... #bit g_rbdcb      = tin_hieu_dk_74573_b.2 
.................... //xxxxxxxxxxxxxxxxxxxxxxxxxxxxxxxxxxxxxxxxxxxx  
.................... #define     mo_led_matran        g_mtb=0; //output_low(g_matranled) 
.................... #define     tat_led_matran       g_mtb=1; //output_low(g_matranled) 
.................... //xxxxxxxxxxxxxxxxxxxxxxxxxxxxxxxxxxxxxxxxxxxx        
.................... #define     mo_8_led_quet        g_8b=0;  //output_low(g_8ledquet) 
.................... #define     tat_8_led_quet       g_8b=1;  //output_low(g_8ledquet) 
.................... //xxxxxxxxxxxxxxxxxxxxxxxxxxxxxxxxxxxxxxxxxxxx          
.................... #define     mo_relay_buzzer_dc   g_rbdcb=0;  //output_low(g_buzerelay) 
.................... #define     tat_relay_buzzer_dc  g_rbdcb=1;  //output_low(g_buzerelay) 
....................  
.................... //xxxxxxxxxxxxxxxxxxxxxxxxxxxxxxxxxxxxxxxxxxxx 
.................... //chuong trinh kiem tra phim bt1 
.................... //xxxxxxxxxxxxxxxxxxxxxxxxxxxxxxxxxxxxxxxxxxxx 
.................... unsigned int8 dl_btn=0; 
.................... int1 phim_bt0(unsigned int16 dl) 
.................... {   
....................     if (!input(bt0)) 
....................     {   
....................       dl_btn++; 
....................        
....................       if (dl_btn>= dl) 
....................          { 
....................             dl_btn =0; 
....................             return(1); 
....................          } 
....................       else return(0); 
....................     } 
....................     else    return(0); 
.................... }  
.................... //xxxxxxxxxxxxxxxxxxxxxxxxxxxxxxxxxxxxxxxxxxxx 
.................... //chuong trinh kiem tra phim bt1 
.................... //xxxxxxxxxxxxxxxxxxxxxxxxxxxxxxxxxxxxxxxxxxxx 
.................... int1 phim_bt1(unsigned int16 dl ) 
.................... {   
....................     if (!input(bt1)) 
....................     {   
....................       dl_btn++; 
....................        
....................       if (dl_btn>= dl) 
....................          { 
....................             dl_btn =0; 
....................             return(1); 
....................          } 
....................       else return(0); 
....................     } 
....................     else    return(0); 
.................... }  
.................... //xxxxxxxxxxxxxxxxxxxxxxxxxxxxxxxxxxxxxxxxxxxx 
.................... //chuong trinh kiem tra phim bt2       
.................... //xxxxxxxxxxxxxxxxxxxxxxxxxxxxxxxxxxxxxxxxxxxx                                     
.................... int1 phim_bt2(unsigned int16 dl ) 
.................... {                                         
....................     if (!input(bt2)) 
....................     {   
....................       dl_btn++; 
....................        
....................       if (dl_btn>= dl) 
....................          { 
....................             dl_btn =0; 
....................             return(1); 
....................          } 
....................       else return(0); 
....................     } 
....................     else    return(0); 
....................                                           
.................... }       
....................  
.................... //xxxxxxxxxxxxxxxxxxxxxxxxxxxxxxxxxxxxxxxxxxxx 
.................... //chuong trinh kiem tra phim bt3 
.................... //xxxxxxxxxxxxxxxxxxxxxxxxxxxxxxxxxxxxxxxxxxxx 
.................... int1 phim_bt3(unsigned int16 dl,  unsigned int8 solan  ) 
.................... {   
....................     if (!input(bt3)) 
....................     {   
....................       dl_btn++; 
....................       if(dl_btn==1) return(1); 
....................       else 
....................       { 
....................          if (dl_btn>= dl) 
....................          dl_btn =solan; 
....................       } 
....................     } 
....................     else    
....................     { 
....................       //dl_btn =0; 
....................       return(0); 
....................     } 
.................... }  
.................... //xxxxxxxxxxxxxxxxxxxxxxxxxxxxxxxxxxxxxxxxxxxx 
.................... //khai bao du lieu 16 bit cho module relay, triac, buzzer, dong co 
.................... //xxxxxxxxxxxxxxxxxxxxxxxxxxxxxxxxxxxxxxxxxxxx 
.................... unsigned int16 rbdc; 
.................... #bit step_motor_enable  = rbdc.0    //1=ena,0=dis 
.................... #bit step_motor_in1     = rbdc.1     
.................... #bit step_motor_in2     = rbdc.2 
.................... #bit step_motor_in3     = rbdc.3 
.................... #bit step_motor_in4     = rbdc.4 
.................... #bit dc_enable          = rbdc.5    //1=ena,0=dis 
.................... #bit pwrkey             = rbdc.6    //khoi tao sim900 
....................  
.................... #bit buzzer             = rbdc.8    //1=on,0=off 
.................... #bit triac_1            = rbdc.9    //1=on,0=off 
.................... #bit triac_2            = rbdc.10   //1=on,0=off 
.................... #bit relay_1            = rbdc.11   //0=on,1=off 
.................... #bit relay_2            = rbdc.12   //0=on,1=off 
....................  
.................... //ham 103 
.................... //xxxxxxxxxxxxxxxxxxxxxxxxxxxxxxxxxxxxxxxxxxxx 
.................... //chuong trinh con khoi tao ic chot 
.................... //xxxxxxxxxxxxxxxxxxxxxxxxxxxxxxxxxxxxxxxxxxxx          
.................... #define     cho_ic_74573_a_goi_du_lieu     output_high(enable_573a) 
.................... #define     chot_ic_74573_a_goi_du_lieu    output_low(enable_573a) 
....................  
.................... #define     cho_ic_74573_b_goi_du_lieu     output_high(enable_573b) 
.................... #define     chot_ic_74573_b_goi_du_lieu    output_low(enable_573b) 
.................... void mo_ic_74573_a_thong_dl(); 
....................  
.................... //xxxxxxxxxxxxxxxxxxxxxxxxxxxxxxxxxxxxxxxxxxxx    
.................... const unsigned char ma7doan[16]= {0xc0,0xf9,0xa4,0xb0,0x99,0x92,0x82,0xf8, 
.................... 0x80,0x90,0x88, 0x83, 0xc6, 0xa1, 0x86, 0x8e}; 
.................... #define     maso0    0xc0 
.................... #define     maso1    0xf9 
.................... #define     maso2    0xa4 
.................... #define     maso3    0xb0 
.................... #define     maso4    0x99 
.................... #define     maso5    0x92 
.................... #define     maso6    0x82 
.................... #define     maso7    0xf8 
....................  
.................... //xxxxxxxxxxxxxxxxxxxxxxxxxxxxxxxxxxxxxxxxxxxx  
.................... //ham 102 
.................... //xxxxxxxxxxxxxxxxxxxxxxxxxxxxxxxxxxxxxxxxxxxx     
.................... //xuat 1 byte ra thanh ghi dich 
.................... //xxxxxxxxxxxxxxxxxxxxxxxxxxxxxxxxxxxxxxxxxxxx     
.................... void xuat_1byte(unsigned int8 bytexuat) 
.................... { 
....................    unsigned int8   sb,x;    
....................    #bit bseri  = x.7 
....................    x = bytexuat; 
*
00F8:  MOVFF  82,84
....................    for (sb=0;sb<8;sb++) 
00FC:  CLRF   x83
00FE:  MOVF   x83,W
0100:  SUBLW  07
0102:  BNC   0120
....................       {                                                  
....................          output_bit(ssdo,bseri);     
0104:  BTFSC  x84.7
0106:  BRA    010C
0108:  BCF    F8D.2
010A:  BRA    010E
010C:  BSF    F8D.2
010E:  BCF    F96.2
....................          output_low(ssck); output_high(ssck); 
0110:  BCF    F96.0
0112:  BCF    F8D.0
0114:  BCF    F96.0
0116:  BSF    F8D.0
....................          x= x<<1;          
0118:  BCF    FD8.0
011A:  RLCF   x84,F
011C:  INCF   x83,F
011E:  BRA    00FE
....................      } 
0120:  RETURN 0
.................... } 
.................... //xxxxxxxxxxxxxxxxxxxxxxxxxxxxxxxxxxxxxxxxxxxx  
.................... //ham 301 
.................... //xxxxxxxxxxxxxxxxxxxxxxxxxxxxxxxxxxxxxxxxxxxx 
.................... //chuong trinh con xuat 4 byte ra 32 led don 
.................... //xxxxxxxxxxxxxxxxxxxxxxxxxxxxxxxxxxxxxxxxxxxx 
.................... void xuat_32led_don_4byte(unsigned int8 bld3,bld2,bld1,bld0) 
.................... {      
....................       xuat_1byte(bld3);           
*
027A:  MOVFF  7E,82
027E:  RCALL  00F8
....................       xuat_1byte(bld2); 
0280:  MOVFF  7F,82
0284:  RCALL  00F8
....................       xuat_1byte(bld1);           
0286:  MOVFF  80,82
028A:  RCALL  00F8
....................       xuat_1byte(bld0);             
028C:  MOVFF  81,82
0290:  RCALL  00F8
....................       mo_32_led_don;       
0292:  BCF    04.4
....................       mo_ic_74573_a_thong_dl();             
0294:  RCALL  0122
....................       output_high(rck_32led);    output_low(rck_32led); 
0296:  BCF    F95.5
0298:  BSF    F8C.5
029A:  BCF    F95.5
029C:  BCF    F8C.5
....................       chot_ic_74573_a_goi_du_lieu;       
029E:  BCF    F95.1
02A0:  BCF    F8C.1
02A2:  GOTO   02C8 (RETURN)
.................... } 
.................... //ham 302 
.................... //xxxxxxxxxxxxxxxxxxxxxxxxxxxxxxxxxxxxxxxxxxxx 
.................... //chuong trinh con xuat 2 word 16 bitra 32 led don 
.................... //xxxxxxxxxxxxxxxxxxxxxxxxxxxxxxxxxxxxxxxxxxxx 
.................... void xuat_32led_don_2word(unsigned int16 wld1, unsigned int16 wld0) 
.................... {      
....................      unsigned int8  b3,b2,b1,b0; 
....................      b3 = wld1>>8;  b2 = wld1;  
02A6:  MOVFF  77,7A
02AA:  MOVFF  76,7B
....................      b1 = wld0>>8;  b0 = wld0; 
02AE:  MOVFF  79,7C
02B2:  MOVFF  78,7D
....................      xuat_32led_don_4byte(b3,b2,b1,b0); 
02B6:  MOVFF  7A,7E
02BA:  MOVFF  7B,7F
02BE:  MOVFF  7C,80
02C2:  MOVFF  7D,81
02C6:  BRA    027A
02C8:  RETURN 0
.................... } 
.................... //ham 303 
.................... //xxxxxxxxxxxxxxxxxxxxxxxxxxxxxxxxxxxxxxxxxxxx 
.................... //chuong trinh con xuat 1 double word ra 32 led don 
.................... //xxxxxxxxxxxxxxxxxxxxxxxxxxxxxxxxxxxxxxxxxxxx 
.................... void xuat_32led_don_1dw(unsigned long long dwld) 
.................... {      
....................      unsigned int16  wd1,wd0; 
....................      wd1 = dwld>>16;  wd0 = dwld; 
02CA:  MOVFF  70,72
02CE:  MOVFF  71,73
02D2:  MOVFF  6F,75
02D6:  MOVFF  6E,74
....................      xuat_32led_don_2word(wd1,wd0); 
02DA:  MOVFF  73,77
02DE:  MOVFF  72,76
02E2:  MOVFF  75,79
02E6:  MOVFF  74,78
02EA:  RCALL  02A6
02EC:  RETURN 0
.................... } 
....................  
.................... //ham 304 
.................... //xxxxxxxxxxxxxxxxxxxxxxxxxxxxxxxxxxxxxxxxxxxx 
.................... //chuong trinh con mo 32 led don sang 
.................... //xxxxxxxxxxxxxxxxxxxxxxxxxxxxxxxxxxxxxxxxxxxx 
.................... void mo_32led_don() 
.................... {         
....................      xuat_32led_don_1dw(0xffffffff); 
.................... } 
.................... //ham 305 
.................... //xxxxxxxxxxxxxxxxxxxxxxxxxxxxxxxxxxxxxxxxxxxx 
.................... //chuong trinh con tat 32 led don  
.................... //xxxxxxxxxxxxxxxxxxxxxxxxxxxxxxxxxxxxxxxxxxxx 
.................... void tat_32led_don() 
.................... {         
....................      xuat_32led_don_1dw(0); 
.................... } 
.................... //xxxxxxxxxxxxxxxxxxxxxxxxxxxxxxxxxxxxxxxxxxxx     
.................... //xuat 1 bit roi tra lai ket qua sau khi dich di 1 bit 
.................... //xxxxxxxxxxxxxxxxxxxxxxxxxxxxxxxxxxxxxxxxxxxx     
.................... unsigned  int8 xuat_1bit(unsigned int8 bytexuat) 
.................... { 
....................       unsigned int8   xbitx;    
....................       #bit bserix  = xbitx.0 
....................       xbitx = bytexuat; 
....................                                              
....................       output_bit(ssdo,bserix);     
....................       output_low(ssck); output_high(ssck); 
....................       xbitx= xbitx>>1;    
....................       return(xbitx);   
.................... } 
.................... //xxxxxxxxxxxxxxxxxxxxxxxxxxxxxxxxxxxxxxxxxxxx  
.................... //ham 101 
.................... //xxxxxxxxxxxxxxxxxxxxxxxxxxxxxxxxxxxxxxxxxxxx     
.................... //ham khoi tao cac port va ic chot 
.................... //xxxxxxxxxxxxxxxxxxxxxxxxxxxxxxxxxxxxxxxxxxxx     
....................    void set_up_port_ic_chot() 
.................... {      
....................       set_tris_d(0x00);     
*
003C:  MOVLW  00
003E:  MOVWF  F95
....................       set_tris_e(0x00); 
0040:  MOVWF  F96
....................       output_d(0xff); 
0042:  CLRF   F95
0044:  SETF   F8C
....................       tin_hieu_dk_74573_a=0xff;   
0046:  SETF   04
....................       tin_hieu_dk_74573_b=0xff;       
0048:  SETF   05
....................       chot_ic_74573_a_goi_du_lieu; 
004A:  BCF    F95.1
004C:  BCF    F8C.1
....................       chot_ic_74573_b_goi_du_lieu;   
004E:  BCF    F95.0
0050:  BCF    F8C.0
....................       rbdc=0; 
0052:  CLRF   08
0054:  CLRF   07
0056:  GOTO   07E0 (RETURN)
.................... } 
.................... //ham 104 
.................... //xxxxxxxxxxxxxxxxxxxxxxxxxxxxxxxxxxxxxxxxxxxx     
.................... //xuat các thieu dieu khien  
.................... //giu nguyen cac trang thai cua 2 module khac 
.................... //xxxxxxxxxxxxxxxxxxxxxxxxxxxxxxxxxxxxxxxxxxxx     
.................... void mo_ic_74573_a_thong_dl() 
.................... {      
....................       output_d(0x00); 
*
0122:  CLRF   F95
0124:  CLRF   F8C
....................       output_bit(g_32led,g_32a); 
0126:  BTFSC  04.4
0128:  BRA    012E
012A:  BCF    F8C.4
012C:  BRA    0130
012E:  BSF    F8C.4
0130:  BCF    F95.4
....................       output_bit(g_4led7doan,g_4a); 
0132:  BTFSC  04.6
0134:  BRA    013A
0136:  BCF    F8C.6
0138:  BRA    013C
013A:  BSF    F8C.6
013C:  BCF    F95.6
....................       output_bit(g_lcd20x4,g_lcda);   
013E:  BTFSC  04.2
0140:  BRA    0146
0142:  BCF    F8C.2
0144:  BRA    0148
0146:  BSF    F8C.2
0148:  BCF    F95.2
....................       cho_ic_74573_a_goi_du_lieu; 
014A:  BCF    F95.1
014C:  BSF    F8C.1
014E:  RETURN 0
.................... } 
.................... void mo_ic_74573_b_thong_dl() 
.................... {      
....................       output_d(0x00); 
*
03BC:  CLRF   F95
03BE:  CLRF   F8C
....................       output_bit(g_matranled,g_mtb); 
03C0:  BTFSC  05.6
03C2:  BRA    03C8
03C4:  BCF    F8C.6
03C6:  BRA    03CA
03C8:  BSF    F8C.6
03CA:  BCF    F95.6
....................       output_bit(g_8ledquet,g_8b); 
03CC:  BTFSC  05.4
03CE:  BRA    03D4
03D0:  BCF    F8C.4
03D2:  BRA    03D6
03D4:  BSF    F8C.4
03D6:  BCF    F95.4
....................       output_bit(g_buzerelay,g_rbdcb);  
03D8:  BTFSC  05.2
03DA:  BRA    03E0
03DC:  BCF    F8C.2
03DE:  BRA    03E2
03E0:  BSF    F8C.2
03E2:  BCF    F95.2
....................       cho_ic_74573_b_goi_du_lieu; 
03E4:  BCF    F95.0
03E6:  BSF    F8C.0
03E8:  RETURN 0
.................... } 
.................... //ham 401 
.................... //xxxxxxxxxxxxxxxxxxxxxxxxxxxxxxxxxxxxxxxxxxxx 
.................... //chuong trinh con xuat 4 byte ra 4 led 7 doan 
.................... //xxxxxxxxxxxxxxxxxxxxxxxxxxxxxxxxxxxxxxxxxxxx 
.................... void xuat_4led_7doan_4so(unsigned int bl743,bl742,bl741,bl740) 
.................... {      
....................       xuat_1byte(bl740);   xuat_1byte(bl741); 
*
0150:  MOVFF  71,82
0154:  RCALL  00F8
0156:  MOVFF  70,82
015A:  RCALL  00F8
....................       xuat_1byte(bl742);   xuat_1byte(bl743); 
015C:  MOVFF  6F,82
0160:  RCALL  00F8
0162:  MOVFF  6E,82
0166:  RCALL  00F8
....................        
....................       mo_4_led_7doan; 
0168:  BCF    04.6
....................       mo_ic_74573_a_thong_dl(); 
016A:  RCALL  0122
....................         
....................       output_low(rck_4led7doan);   output_high(rck_4led7doan);  
016C:  BCF    F95.7
016E:  BCF    F8C.7
0170:  BCF    F95.7
0172:  BSF    F8C.7
....................       chot_ic_74573_a_goi_du_lieu; 
0174:  BCF    F95.1
0176:  BCF    F8C.1
0178:  GOTO   0278 (RETURN)
.................... } 
.................... //ham 404 
.................... void xuat_4led_7doan_3so(unsigned int bl742,bl741,bl740) 
.................... {      
....................      xuat_4led_7doan_4so(0xff,bl742,bl741,bl740); 
.................... } 
.................... //ham 403 
.................... void xuat_4led_7doan_2so(unsigned int bl741,bl740) 
.................... {      
....................      xuat_4led_7doan_4so(0xff,0xff,bl741,bl740); 
.................... } 
.................... //ham 402 
.................... void xuat_4led_7doan_1so(unsigned int bl740) 
.................... {      
....................      xuat_4led_7doan_4so(0xff,0xff,0xff,bl740); 
.................... } 
....................  
.................... //ham 405 
.................... //xxxxxxxxxxxxxxxxxxxxxxxxxxxxxxxxxxxxxxxxxxxxxxxxxxxxxxxxxxxxx 
.................... //chuong trinh con hien thi du lieu 16 bit tren 4 led 7 doan 
.................... //xxxxxxxxxxxxxxxxxxxxxxxxxxxxxxxxxxxxxxxxxxxxxxxxxxxxxxxxxxxxx 
.................... unsigned char donvi4,chuc4,tram4,ngan4; 
.................... void  xuat_4led_7doan_giaima_xoa_so0 (unsigned int16 tam) 
.................... {          
....................       donvi4 = ma7doan[tam %10];          
017C:  MOVFF  6D,71
0180:  MOVFF  6C,70
0184:  CLRF   x73
0186:  MOVLW  0A
0188:  MOVWF  x72
018A:  RCALL  00B6
018C:  MOVFF  00,6E
0190:  MOVFF  03,6F
0194:  MOVFF  03,03
0198:  MOVF   00,W
019A:  RCALL  0004
019C:  MOVWF  09
....................       chuc4  = ma7doan[tam/10%10]; 
019E:  MOVFF  6D,71
01A2:  MOVFF  6C,70
01A6:  CLRF   x73
01A8:  MOVLW  0A
01AA:  MOVWF  x72
01AC:  RCALL  00B6
01AE:  MOVFF  02,6F
01B2:  MOVFF  01,6E
01B6:  MOVFF  02,71
01BA:  MOVFF  01,70
01BE:  CLRF   x73
01C0:  MOVLW  0A
01C2:  MOVWF  x72
01C4:  RCALL  00B6
01C6:  MOVFF  00,6E
01CA:  MOVFF  03,6F
01CE:  MOVFF  03,03
01D2:  MOVF   00,W
01D4:  RCALL  0004
01D6:  MOVWF  0A
....................       tram4  = ma7doan[tam/100%10];  
01D8:  MOVFF  6D,71
01DC:  MOVFF  6C,70
01E0:  CLRF   x73
01E2:  MOVLW  64
01E4:  MOVWF  x72
01E6:  RCALL  00B6
01E8:  MOVFF  02,6F
01EC:  MOVFF  01,6E
01F0:  MOVFF  02,71
01F4:  MOVFF  01,70
01F8:  CLRF   x73
01FA:  MOVLW  0A
01FC:  MOVWF  x72
01FE:  RCALL  00B6
0200:  MOVFF  00,6E
0204:  MOVFF  03,6F
0208:  MOVFF  03,03
020C:  MOVF   00,W
020E:  RCALL  0004
0210:  MOVWF  0B
....................       ngan4  = ma7doan[tam/1000%10];        
0212:  MOVFF  6D,71
0216:  MOVFF  6C,70
021A:  MOVLW  03
021C:  MOVWF  x73
021E:  MOVLW  E8
0220:  MOVWF  x72
0222:  RCALL  00B6
0224:  MOVFF  02,6F
0228:  MOVFF  01,6E
022C:  MOVFF  02,71
0230:  MOVFF  01,70
0234:  CLRF   x73
0236:  MOVLW  0A
0238:  MOVWF  x72
023A:  RCALL  00B6
023C:  MOVFF  00,6E
0240:  MOVFF  03,6F
0244:  MOVFF  03,03
0248:  MOVF   00,W
024A:  RCALL  0004
024C:  MOVWF  0C
....................       if (ngan4==0xc0) 
024E:  MOVF   0C,W
0250:  SUBLW  C0
0252:  BNZ   0266
....................       { 
....................          ngan4=0xff; 
0254:  SETF   0C
....................          if (tram4==0xc0) 
0256:  MOVF   0B,W
0258:  SUBLW  C0
025A:  BNZ   0266
....................          { 
....................             tram4=0xff; 
025C:  SETF   0B
....................             if (chuc4==0xc0)   chuc4=0xff; 
025E:  MOVF   0A,W
0260:  SUBLW  C0
0262:  BNZ   0266
0264:  SETF   0A
....................          } 
....................       } 
....................       xuat_4led_7doan_4so(ngan4,tram4,chuc4,donvi4);    
0266:  MOVFF  0C,6E
026A:  MOVFF  0B,6F
026E:  MOVFF  0A,70
0272:  MOVFF  09,71
0276:  BRA    0150
0278:  RETURN 0
.................... } 
.................... unsigned int8 lcddata=0;  
.................... unsigned int8 lcdcontrol=0; 
.................... unsigned int8 glcddata=0; 
.................... unsigned int8 glcdcontrol=0;  
.................... //ham 701 
.................... //xxxxxxxxxxxxxxxxxxxxxxxxxxxxxxxxxxxxxxxxxxxxxxxxxxxxxxxxxxxxx 
.................... //chuong trinh con xuat du lieu 4 byte ra glcd va lcd 
.................... //xxxxxxxxxxxxxxxxxxxxxxxxxxxxxxxxxxxxxxxxxxxxxxxxxxxxxxxxxxxxx 
.................... void xuat_glcd_lcd() 
.................... {       
....................     xuat_1byte(glcdcontrol);              
....................     xuat_1byte(glcddata); 
....................     xuat_1byte(lcdcontrol);        
....................     xuat_1byte(lcddata);       
....................        
....................     mo_glcd_lcd; 
....................     mo_ic_74573_a_thong_dl();             
....................     output_high(rck_lcd20x4);      
....................     output_low(rck_lcd20x4); 
....................     chot_ic_74573_a_goi_du_lieu; 
.................... } 
.................... //ham 702 
.................... void xuat_lcd20x4(unsigned int8 lcd_signal,lcd_ins_hthi) 
.................... {      
....................     lcdcontrol = ~lcd_signal; 
....................     lcddata    = ~lcd_ins_hthi;       
....................     xuat_glcd_lcd(); 
.................... } 
.................... //ham 703 
.................... void xuat_glcd128x64(unsigned int8 glcd_signal,glcd_ins_hthi) 
.................... {      
....................     glcdcontrol = ~glcd_signal; 
....................     glcddata    = ~glcd_ins_hthi;      
....................     xuat_glcd_lcd(); 
.................... } 
.................... //ham 501 
.................... //xxxxxxxxxxxxxxxxxxxxxxxxxxxxxxxxxxxxxxxxxxxx 
.................... //chuong trinh con xuat 2 byte ra dk 1 led quet sang 
.................... //xxxxxxxxxxxxxxxxxxxxxxxxxxxxxxxxxxxxxxxxxxxx 
.................... void xuat_8led_7doan_quet_1(unsigned int ma,so_hthi) 
.................... {      
....................       xuat_1byte(~ma);   xuat_1byte(~so_hthi); 
*
041C:  MOVF   x72,W
041E:  MOVWF  x74
0420:  COMF   x74,F
0422:  MOVFF  74,82
0426:  RCALL  00F8
0428:  MOVFF  73,74
042C:  COMF   x74,F
042E:  MOVFF  74,82
0432:  RCALL  00F8
....................        
....................       mo_8_led_quet; 
0434:  BCF    05.4
....................       mo_ic_74573_b_thong_dl(); 
0436:  RCALL  03BC
....................        
....................       output_high(rck_8ledquet); output_low(rck_8ledquet); 
0438:  BCF    F95.5
043A:  BSF    F8C.5
043C:  BCF    F95.5
043E:  BCF    F8C.5
....................       chot_ic_74573_b_goi_du_lieu; 
0440:  BCF    F95.0
0442:  BCF    F8C.0
0444:  GOTO   044E (RETURN)
.................... } 
.................... //ham 502 
.................... //xxxxxxxxxxxxxxxxxxxxxxxxxxxxxxxxxxxxxxxxxxxx 
.................... //chuong trinh con xuat 2 byte ra tat 8 led quet 
.................... //xxxxxxxxxxxxxxxxxxxxxxxxxxxxxxxxxxxxxxxxxxxx 
.................... void xuat_8led_7doan_quet_tat_led() 
.................... { 
....................    xuat_8led_7doan_quet_1(0xff,0xff); 
0448:  SETF   x72
044A:  SETF   x73
044C:  BRA    041C
044E:  GOTO   047E (RETURN)
.................... } 
.................... //ham 503 
.................... //xxxxxxxxxxxxxxxxxxxxxxxxxxxxxxxxxxxxxxxxxxxx 
.................... //chuong trinh con hien thi led theo thu tu 
.................... //xxxxxxxxxxxxxxxxxxxxxxxxxxxxxxxxxxxxxxxxxxxx 
.................... const unsigned char ttledquet[8]= {0x7f,0xbf,0xdf,0xef,0xf7,0xfb,0xfd,0xfe}; 
.................... void xuat_8led_7doan_quet_2(unsigned int thutuled,so_hthi) 
.................... {          
....................       xuat_1byte(~ (ttledquet[thutuled]));   xuat_1byte(~so_hthi);      
*
03EA:  CLRF   03
03EC:  MOVF   x73,W
03EE:  RCALL  0024
03F0:  MOVWF  01
03F2:  MOVWF  x75
03F4:  COMF   x75,F
03F6:  MOVFF  75,82
03FA:  RCALL  00F8
03FC:  MOVFF  74,75
0400:  COMF   x75,F
0402:  MOVFF  75,82
0406:  RCALL  00F8
....................       mo_8_led_quet; 
0408:  BCF    05.4
....................       mo_ic_74573_b_thong_dl(); 
040A:  RCALL  03BC
....................       output_high(rck_8ledquet); output_low(rck_8ledquet); 
040C:  BCF    F95.5
040E:  BSF    F8C.5
0410:  BCF    F95.5
0412:  BCF    F8C.5
....................       chot_ic_74573_b_goi_du_lieu; 
0414:  BCF    F95.0
0416:  BCF    F8C.0
0418:  GOTO   0472 (RETURN)
.................... } 
.................... //ham 504 
.................... //xxxxxxxxxxxxxxxxxxxxxxxxxxxxxxxxxxxxxxxxxxxx 
.................... //chuong trinh con hien thi 8 so tren 8 led quet - co kiem tra 
.................... //xxxxxxxxxxxxxxxxxxxxxxxxxxxxxxxxxxxxxxxxxxxx 
.................... unsigned int8 led_7dq[8]={0xff,0xff,0xff,0xff,0xff,0xff,0xff,0xff}; 
.................... unsigned int8 tt8led=0; 
.................... void hien_thi_8led_7doan_quet() 
.................... {      
....................       for(tt8led=0;tt8led<8;tt8led++) 
....................          if (led_7dq[tt8led]!=0xff) 
....................          {            
....................             xuat_8led_7doan_quet_2(tt8led, led_7dq[tt8led]); 
....................             delay_us(100); 
....................             xuat_8led_7doan_quet_tat_led();            
....................             } 
.................... } 
.................... //ham 505 
.................... //xxxxxxxxxxxxxxxxxxxxxxxxxxxxxxxxxxxxxxxxxxxx 
.................... //chuong trinh con hien thi 8 so tren 8 led quet - khong kiem tra 
.................... //xxxxxxxxxxxxxxxxxxxxxxxxxxxxxxxxxxxxxxxxxxxx 
.................... void hien_thi_8led_7doan_quet_all() 
.................... {      
....................       for(tt8led=0;tt8led<8;tt8led++)          
*
0452:  CLRF   19
0454:  MOVF   19,W
0456:  SUBLW  07
0458:  BNC   0482
....................          {            
....................             xuat_8led_7doan_quet_2(tt8led, led_7dq[tt8led]); 
045A:  CLRF   03
045C:  MOVF   19,W
045E:  ADDLW  11
0460:  MOVWF  FE9
0462:  MOVLW  00
0464:  ADDWFC 03,W
0466:  MOVWF  FEA
0468:  MOVFF  FEF,74
046C:  MOVFF  19,73
0470:  BRA    03EA
....................             delay_us(100); 
0472:  MOVLW  A6
0474:  MOVWF  00
0476:  DECFSZ 00,F
0478:  BRA    0476
047A:  NOP   
....................             xuat_8led_7doan_quet_tat_led();            
047C:  BRA    0448
047E:  INCF   19,F
0480:  BRA    0454
....................             } 
0482:  GOTO   0490 (RETURN)
.................... } 
....................  
.................... void delay_quet_8led(unsigned int16 dl) 
.................... {  
....................       unsigned int8 i; 
....................       for (i=0; i<dl;i++) 
....................       hien_thi_8led_7doan_quet_all(); 
.................... }  
....................  
.................... void giai_ma_gan_cho_8led_quet_16_xoa(unsigned int16 x) 
.................... {      
....................       led_7dq[0]= ma7doan [x %10];     
....................       led_7dq[1]= ma7doan [x/10%10]; 
....................       led_7dq[2]= ma7doan [x/100%10];     
....................       led_7dq[3]= ma7doan [x/1000%10]; 
....................       led_7dq[4]= ma7doan [x/10000%10]; 
....................       if (led_7dq[4]==maso0)  
....................       { 
....................             led_7dq[4]=0xff; 
....................             if (led_7dq[3]==maso0)  
....................             { 
....................                led_7dq[3]=0xff; 
....................                if (led_7dq[2]==maso0)  
....................                { 
....................                   led_7dq[2]=0xff; 
....................                   if (led_7dq[1]==maso0)  
....................                   { 
....................                      led_7dq[1]=0xff; 
....................                   } 
....................                } 
....................             } 
....................       } 
....................              
.................... } 
.................... //xxxxxxxxxxxxxxxxxxxxxxxxxxxxxxxxxxxxxxxxxxxx          
.................... void xuat_2byte(unsigned int16 byte2xuat) 
.................... { 
....................    int8 sbb; 
....................    unsigned int16   xx;   //short  bseri; 
....................    #bit bserix  = xx.15 
....................    xx = byte2xuat; 
....................    for (sbb=0;sbb<16;sbb++) 
....................       {                                                  
....................          output_bit(ssdo,bserix);     
....................          output_low(ssck);          
....................          output_high(ssck); 
....................          xx= xx<<1;          
....................      } 
.................... } 
.................... //xxxxxxxxxxxxxxxxxxxxxxxxxxxxxxxxxxxxxxxxxxxx 
.................... //chuong trinh con xuat ra led ma tran 
.................... //xxxxxxxxxxxxxxxxxxxxxxxxxxxxxxxxxxxxxxxxxxxx 
.................... void xuat_matranled(unsigned int16 mahang,unsigned int16 macot1, 
.................... unsigned int16 macot2,unsigned int16 macot3) 
.................... {       
....................       xuat_2byte(macot3); 
....................       xuat_2byte(macot2); 
....................       xuat_2byte(macot1); 
....................       xuat_2byte(mahang); 
....................        
....................       mo_led_matran; 
....................       mo_ic_74573_b_thong_dl(); 
....................        
....................       output_high(rck_matranled); output_low(rck_matranled);  
....................       chot_ic_74573_b_goi_du_lieu; 
.................... } 
.................... //xxxxxxxxxxxxxxxxxxxxxxxxxxxxxxxxxxxxxxxxxxxx 
.................... //chuong trinh con xuat ra led ma tran 
.................... //xxxxxxxxxxxxxxxxxxxxxxxxxxxxxxxxxxxxxxxxxxxx 
.................... void tat_matranled() 
.................... {       
....................       xuat_2byte(0); 
....................       xuat_2byte(0); 
....................       xuat_2byte(0); 
....................       xuat_2byte(0);            
....................       output_high(rck_matranled);  
....................       output_low(rck_matranled); 
.................... } 
.................... unsigned  int8 hieu_chinh_4bit_cao(unsigned int8 xzy) 
.................... { 
....................       int1  btg; 
....................       unsigned int8   bx;    
....................       #bit bit4  = bx.4 
....................       #bit bit5  = bx.5 
....................       #bit bit6  = bx.6 
....................       #bit bit7  = bx.7 
....................       bx=xzy; 
....................       btg=bit4;   bit4=bit7;  bit7=btg; 
....................       btg=bit5;   bit5=bit6;  bit6=btg;       
....................       return(bx);   
.................... } 
.................... //ham 601 
.................... //xxxxxxxxxxxxxxxxxxxxxxxxxxxxxxxxxxxxxxxxxxxxxxxxxxxx 
.................... //module dieu khien relay,triac, buzzer, dong co, sim 
.................... //xxxxxxxxxxxxxxxxxxxxxxxxxxxxxxxxxxxxxxxxxxxxxxxxxxxx 
.................... void xuat_buzzer_relay() 
.................... {      
....................    unsigned int8 rbdc1,rbdc2; 
....................       rbdc1=rbdc; rbdc2=rbdc>>8;       
....................       xuat_1byte(rbdc2);       
....................       xuat_1byte(rbdc1); 
....................       mo_relay_buzzer_dc; 
....................       mo_ic_74573_b_thong_dl(); 
....................        
....................       output_high(rck_buzerelay);   output_low(rck_buzerelay); 
....................       chot_ic_74573_b_goi_du_lieu; 
.................... } 
.................... //ham 602 
.................... //xxxxxxxxxxxxxxxxxxxxxxxxxxxxxxxxxxxxxxxxxxxxxxxxxxxx 
.................... void buzzer_on() 
.................... {     
....................       buzzer=1; 
....................       xuat_buzzer_relay();          
.................... } 
.................... //ham 603 
.................... //xxxxxxxxxxxxxxxxxxxxxxxxxxxxxxxxxxxxxxxxxxxxxxxxxxxx 
.................... void buzzer_off() 
.................... {      
....................       buzzer=0; 
....................       xuat_buzzer_relay(); 
.................... } 
.................... //ham 604 
.................... //xxxxxxxxxxxxxxxxxxxxxxxxxxxxxxxxxxxxxxxxxxxxxxxxxxxx 
.................... void relay_1_on() 
.................... {     
....................       relay_1=1; 
....................       xuat_buzzer_relay();          
.................... } 
.................... //ham 603 
.................... //xxxxxxxxxxxxxxxxxxxxxxxxxxxxxxxxxxxxxxxxxxxxxxxxxxxx 
.................... void relay_1_off() 
.................... {     
....................       relay_1=0; 
....................       xuat_buzzer_relay();          
.................... } 
.................... //ham 604 
.................... //xxxxxxxxxxxxxxxxxxxxxxxxxxxxxxxxxxxxxxxxxxxxxxxxxxxx 
.................... void relay_2_on() 
.................... {     
....................       relay_2=1; 
....................       xuat_buzzer_relay();          
.................... } 
.................... //ham 607 
.................... //xxxxxxxxxxxxxxxxxxxxxxxxxxxxxxxxxxxxxxxxxxxxxxxxxxxx 
.................... void relay_2_off() 
.................... {     
....................       relay_2=0; 
....................       xuat_buzzer_relay();          
.................... } 
.................... //ham 608 
.................... //xxxxxxxxxxxxxxxxxxxxxxxxxxxxxxxxxxxxxxxxxxxxxxxxxxxx 
.................... void relay_1_relay_2_on() 
.................... {     
....................       relay_1=1;  relay_2=1; 
....................       xuat_buzzer_relay();          
.................... } 
.................... //ham 609 
.................... //xxxxxxxxxxxxxxxxxxxxxxxxxxxxxxxxxxxxxxxxxxxxxxxxxxxx 
.................... void relay_1_relay_2_off() 
.................... {     
....................       relay_1=0;  relay_2=0; 
....................       xuat_buzzer_relay();          
.................... } 
.................... //ham 610 
.................... //xxxxxxxxxxxxxxxxxxxxxxxxxxxxxxxxxxxxxxxxxxxxxxxxxxxx 
.................... void triac_1_on() 
.................... {     
....................       triac_1=1; 
....................       xuat_buzzer_relay();          
.................... } 
.................... //ham 611 
.................... //xxxxxxxxxxxxxxxxxxxxxxxxxxxxxxxxxxxxxxxxxxxxxxxxxxxx 
.................... void triac_1_off() 
.................... {     
....................       triac_1=0; 
....................       xuat_buzzer_relay();          
.................... } 
.................... //ham 612 
.................... //xxxxxxxxxxxxxxxxxxxxxxxxxxxxxxxxxxxxxxxxxxxxxxxxxxxx 
.................... void triac_2_on() 
.................... {     
....................       triac_2=1; 
....................       xuat_buzzer_relay();          
.................... } 
.................... //ham 613 
.................... //xxxxxxxxxxxxxxxxxxxxxxxxxxxxxxxxxxxxxxxxxxxxxxxxxxxx 
.................... void triac_2_off() 
.................... {     
....................       triac_2=0; 
....................       xuat_buzzer_relay();          
.................... } 
.................... //xxxxxxxxxxxxxxxxxxxxxxxxxxxxxxxxxxxxxxxxxxxx 
....................  
....................  
....................  
.................... #include "TV_PICKIT2_SHIFT_KEY4X4_138.c" 
.................... const unsigned char maquetkey[4]= {0x3f,0x7f,0xbf,0xff}; 
.................... unsigned int8  mpt1=0,mpt2=0;   
.................... unsigned int key_nhan() 
.................... {     signed int8 maphim,hang,cot; 
....................       maphim=hang=0xff; 
....................       for(cot=0;cot<4;cot++) 
....................             {    
....................                output_b(maquetkey[cot]); 
....................                if         (!input(pin_b2))      {hang=3;   break;} 
....................                else    if (!input(pin_b3))      {hang=2;   break;} 
....................                else    if (!input(pin_b4))      {hang=1;   break;} 
....................                else    if (!input(pin_b5))      {hang=0;   break;} 
....................             }           
....................          if (hang!=0xff)   maphim   = cot*4 + hang; 
....................          return(maphim); 
.................... } 
.................... unsigned int key_4x4_dw() 
.................... {      
....................       mpt1=key_nhan();          
....................       if (mpt1!=0xff)    
....................       {  delay_ms(1);   
....................          mpt1=key_nhan(); 
....................          do{mpt2=key_nhan();} 
....................          while (mpt2==mpt1); 
....................       }              
....................       return(mpt1); 
.................... } 
....................  
.................... unsigned int key_4x4_up() 
.................... {             
....................       mpt1=key_nhan(); 
....................       if (mpt1!=0xff)    
....................       {   
....................          if (mpt1!=mpt2) 
....................             { 
....................                mpt2=mpt1; 
....................                return(mpt1);  //phim moi 
....................             } 
....................          else 
....................          { 
....................             delay_ms(1); 
....................             mpt1=key_nhan(); 
....................             do 
....................             { 
....................                mpt2=key_nhan(); 
....................                } 
....................             while (mpt2!=mpt1); 
.................... 			mpt2=mpt1; 
....................             return(mpt1);     //thoat vi trung ma phim da nhan 
....................                            
....................          } 
....................       }   
....................       else  
....................       { 
.................... 		   mpt2=mpt1; 
....................          return(mpt1);  //thoat vi khong nhan 
....................           
....................       }       
.................... } 
....................  
....................  
....................  
.................... #include "TV_PICKIT2_SHIFT_32LED_DON.c" 
.................... unsigned int32    y=0,yp_chay=1,yt_chay=0x80000000,y_codinh=0; 
.................... unsigned int16 zt,zt_chay_t=0x8000,zt_chay_p=1,zt_codinh=0; 
.................... unsigned int16 zp,zp_chay_t=0x8000,zp_chay_p=1,zp_codinh=0; 
....................  
.................... unsigned int16 tgdlay=0; 
.................... unsigned int8 dem_led=0;  
.................... signed i32=32,j32=0,ttct_td=1,i16=16,j16=0; 
....................  
.................... unsigned int32    za=1,ya=1,xa=0xfffffffe,zb=0x80000000,yb=0x80000000,xb=0x7fffffff;    
.................... signed ia=1,ja=1;   
.................... void reset_toan_bo_bien() 
.................... {  
....................       ttct_td++;     //chuyen chuong trinh cho tu dong 
*
030A:  INCF   41,F
....................       y=0;      yp_chay=1;      yt_chay=0x80000000;      y_codinh=0; 
030C:  CLRF   1F
030E:  CLRF   1E
0310:  CLRF   1D
0312:  CLRF   1C
0314:  CLRF   23
0316:  CLRF   22
0318:  CLRF   21
031A:  MOVLW  01
031C:  MOVWF  20
031E:  MOVLW  80
0320:  MOVWF  27
0322:  CLRF   26
0324:  CLRF   25
0326:  CLRF   24
0328:  CLRF   2B
032A:  CLRF   2A
032C:  CLRF   29
032E:  CLRF   28
....................       zt_chay_t=0x8000;    zt_chay_p=1;   zt_codinh=0; 
0330:  MOVWF  2F
0332:  CLRF   2E
0334:  CLRF   31
0336:  MOVLW  01
0338:  MOVWF  30
033A:  CLRF   33
033C:  CLRF   32
....................       zp_chay_t=0x8000;    zp_chay_p=1;   zp_codinh=0; 
033E:  MOVLW  80
0340:  MOVWF  37
0342:  CLRF   36
0344:  CLRF   39
0346:  MOVLW  01
0348:  MOVWF  38
034A:  CLRF   3B
034C:  CLRF   3A
....................       zt=zp=0; 
034E:  CLRF   35
0350:  CLRF   34
0352:  MOVFF  35,2D
0356:  MOVFF  34,2C
....................       i32=32;j32=0;i16=16,j16=0; 
035A:  MOVLW  20
035C:  MOVWF  3F
035E:  CLRF   40
0360:  MOVLW  10
0362:  MOVWF  42
0364:  CLRF   43
....................       dem_led=0; 
0366:  CLRF   3E
....................        
....................       za=1;    ya=1;    xa=0xfffffffe;     ia=1;    ja=1; 
0368:  CLRF   47
036A:  CLRF   46
036C:  CLRF   45
036E:  MOVLW  01
0370:  MOVWF  44
0372:  CLRF   4B
0374:  CLRF   4A
0376:  CLRF   49
0378:  MOVWF  48
037A:  SETF   4F
037C:  SETF   4E
037E:  SETF   4D
0380:  MOVLW  FE
0382:  MOVWF  4C
0384:  MOVLW  01
0386:  MOVWF  5C
0388:  MOVWF  5D
....................      zb=0x80000000;    yb=0x80000000;    xb=0x7fffffff; 
038A:  MOVLW  80
038C:  MOVWF  53
038E:  CLRF   52
0390:  CLRF   51
0392:  CLRF   50
0394:  MOVWF  57
0396:  CLRF   56
0398:  CLRF   55
039A:  CLRF   54
039C:  MOVLW  7F
039E:  MOVWF  5B
03A0:  SETF   5A
03A2:  SETF   59
03A4:  SETF   58
....................      tgdlay = 0; 
03A6:  CLRF   3D
03A8:  CLRF   3C
03AA:  RETURN 0
.................... }  
....................  
.................... void tang_dem_led_delay_1(unsigned int8 dl) 
.................... {  
....................       unsigned int8 i; 
....................       for (i=0; i<dl;i++) 
*
0486:  CLRF   x71
0488:  MOVF   x70,W
048A:  SUBWF  x71,W
048C:  BC    0494
....................       hien_thi_8led_7doan_quet_all(); 
048E:  BRA    0452
0490:  INCF   x71,F
0492:  BRA    0488
....................       dem_led++; 
0494:  INCF   3E,F
0496:  GOTO   04AC (RETURN)
.................... }  
....................  
.................... void tang_dem_led_delay_0(unsigned int8 dl) 
.................... {  
....................       if (dl>0)      delay_ms(dl);  
*
03AC:  MOVF   x70,F
03AE:  BZ    03B6
03B0:  MOVFF  70,71
03B4:  RCALL  005A
....................       dem_led++; 
03B6:  INCF   3E,F
03B8:  GOTO   04AC (RETURN)
.................... }  
....................  
.................... void delay_chon(unsigned int8 dl,chondelay) 
.................... {     
....................    if (!chondelay)   tang_dem_led_delay_0(dl); 
*
049A:  MOVF   x6F,F
049C:  BNZ   04A6
049E:  MOVFF  6E,70
04A2:  BRA    03AC
04A4:  BRA    04AC
....................    else              tang_dem_led_delay_1(dl); 
04A6:  MOVFF  6E,70
04AA:  BRA    0486
04AC:  RETURN 0
.................... } 
.................... //xxxxxxxxxxxxxxxxxxxxxxxxxxxxxxxxxxxxxxxxxxxx 
.................... //32 led: sang don  phai sang trai 
.................... //xxxxxxxxxxxxxxxxxxxxxxxxxxxxxxxxxxxxxxxxxxxx 
.................... void diem_sang_dich_trai_mat_dan_32led(unsigned int8 dl,chondelay) 
.................... {        
....................    if(ia<33) 
....................    { 
....................       if(ja>0) 
....................       { 
....................          zb = (zb << 1); 
....................          y = xb|zb;         
....................          xuat_32led_don_1dw(y); 
....................          delay_chon(dl,chondelay); 
....................          ja--; 
....................       } 
....................       else  
....................       { 
....................          ia++; 
....................          ja=ia;       
....................          yb = yb>>1; 
....................          xb = xb>>1; 
....................          zb = yb; 
....................       } 
....................    } 
....................    else reset_toan_bo_bien(); 
.................... }   
.................... //xxxxxxxxxxxxxxxxxxxxxxxxxxxxxxxxxxxxxxxxxxxx 
.................... //32 led: sang don  trai sang phai 
.................... //xxxxxxxxxxxxxxxxxxxxxxxxxxxxxxxxxxxxxxxxxxxx 
.................... void diem_sang_dich_phai_mat_dan_32led(unsigned int8 dl,chondelay) 
.................... {        
....................    if(ia<33) 
....................    { 
....................       if(ja>0) 
....................       { 
....................          za = (za >> 1); 
....................          y = xa|za;         
....................          xuat_32led_don_1dw(y); 
....................          delay_chon(dl,chondelay); 
....................          ja--; 
....................       } 
....................       else  
....................       { 
....................          ia++; 
....................          ja=ia;       
....................          ya = ya<<1; 
....................          xa = xa <<1; 
....................          za = ya; 
....................       } 
....................    } 
....................    else reset_toan_bo_bien(); 
.................... }   
.................... //xxxxxxxxxxxxxxxxxxxxxxxxxxxxxxxxxxxxxxxxxxxx 
.................... //32 led: chop tat  
.................... //xxxxxxxxxxxxxxxxxxxxxxxxxxxxxxxxxxxxxxxxxxxx 
.................... void dao_dl_32bit_va_xuat() 
.................... { 
....................    y=~y; 
*
02EE:  COMF   1C,F
02F0:  COMF   1D,F
02F2:  COMF   1E,F
02F4:  COMF   1F,F
....................    xuat_32led_don_1dw(y);  
02F6:  MOVFF  1F,71
02FA:  MOVFF  1E,70
02FE:  MOVFF  1D,6F
0302:  MOVFF  1C,6E
0306:  RCALL  02CA
0308:  RETURN 0
.................... } 
.................... void sang_tat_32led(unsigned int8 dl,chondelay) 
.................... {         
....................       if (tgdlay==1)          xuat_32led_don_1dw(y);  
*
04AE:  DECFSZ 3C,W
04B0:  BRA    04CA
04B2:  MOVF   3D,F
04B4:  BNZ   04CA
04B6:  MOVFF  1F,71
04BA:  MOVFF  1E,70
04BE:  MOVFF  1D,6F
04C2:  MOVFF  1C,6E
04C6:  RCALL  02CA
04C8:  BRA    0500
....................       else if (tgdlay==50)    dao_dl_32bit_va_xuat(); 
04CA:  MOVF   3C,W
04CC:  SUBLW  32
04CE:  BNZ   04D8
04D0:  MOVF   3D,F
04D2:  BNZ   04D8
04D4:  RCALL  02EE
04D6:  BRA    0500
....................       else if (tgdlay==100)   dao_dl_32bit_va_xuat();           
04D8:  MOVF   3C,W
04DA:  SUBLW  64
04DC:  BNZ   04E6
04DE:  MOVF   3D,F
04E0:  BNZ   04E6
04E2:  RCALL  02EE
04E4:  BRA    0500
....................       else if (tgdlay==150)   dao_dl_32bit_va_xuat();                  
04E6:  MOVF   3C,W
04E8:  SUBLW  96
04EA:  BNZ   04F4
04EC:  MOVF   3D,F
04EE:  BNZ   04F4
04F0:  RCALL  02EE
04F2:  BRA    0500
....................       else if (tgdlay==200)   
04F4:  MOVF   3C,W
04F6:  SUBLW  C8
04F8:  BNZ   0500
04FA:  MOVF   3D,F
04FC:  BNZ   0500
....................       { 
.................... //!         ttct_td++;   y=0;        tgdlay=0; 
....................             reset_toan_bo_bien(); 
04FE:  RCALL  030A
....................       } 
....................       tgdlay++; 
0500:  INCF   3C,F
0502:  BTFSC  FD8.2
0504:  INCF   3D,F
....................       delay_chon(dl,chondelay); 
0506:  MOVFF  6C,6E
050A:  MOVFF  6D,6F
050E:  RCALL  049A
0510:  RETURN 0
.................... } 
.................... //xxxxxxxxxxxxxxxxxxxxxxxxxxxxxxxxxxxxxxxxxxxx 
.................... //32 led: sang dan roi tat dan tu ngoai vao 
.................... //xxxxxxxxxxxxxxxxxxxxxxxxxxxxxxxxxxxxxxxxxxxx 
.................... void sang_tat_dan_ngoai_vao_32led(unsigned int8 dl,chondelay) 
.................... {   
....................    if (dem_led<16) 
0512:  MOVF   3E,W
0514:  SUBLW  0F
0516:  BNC   055C
....................    {   
....................       xuat_32led_don_2word(zp,zt);         
0518:  MOVFF  35,77
051C:  MOVFF  34,76
0520:  MOVFF  2D,79
0524:  MOVFF  2C,78
0528:  RCALL  02A6
....................       zp= (zp<<1)+1;  
052A:  BCF    FD8.0
052C:  RLCF   34,W
052E:  MOVWF  x6E
0530:  RLCF   35,W
0532:  MOVWF  x6F
0534:  MOVLW  01
0536:  ADDWF  x6E,W
0538:  MOVWF  34
053A:  MOVLW  00
053C:  ADDWFC x6F,W
053E:  MOVWF  35
....................       zt= (zt>>1)+0x8000; 
0540:  BCF    FD8.0
0542:  RRCF   2D,W
0544:  MOVWF  x6F
0546:  RRCF   2C,W
0548:  MOVWF  2C
054A:  MOVLW  80
054C:  ADDWF  x6F,W
054E:  MOVWF  2D
....................       delay_chon(dl,chondelay); 
0550:  MOVFF  6C,6E
0554:  MOVFF  6D,6F
0558:  RCALL  049A
....................    } 
055A:  BRA    058E
....................    else  if (dem_led<32) 
055C:  MOVF   3E,W
055E:  SUBLW  1F
0560:  BNC   058C
....................    {   
....................       xuat_32led_don_2word(zp,zt); 
0562:  MOVFF  35,77
0566:  MOVFF  34,76
056A:  MOVFF  2D,79
056E:  MOVFF  2C,78
0572:  RCALL  02A6
....................       zp= (zp<<1);  
0574:  BCF    FD8.0
0576:  RLCF   34,F
0578:  RLCF   35,F
....................       zt= (zt>>1); 
057A:  BCF    FD8.0
057C:  RRCF   2D,F
057E:  RRCF   2C,F
....................       delay_chon(dl,chondelay); 
0580:  MOVFF  6C,6E
0584:  MOVFF  6D,6F
0588:  RCALL  049A
....................    } 
058A:  BRA    058E
....................    else reset_toan_bo_bien(); 
058C:  RCALL  030A
058E:  RETURN 0
....................  
.................... }    
.................... //xxxxxxxxxxxxxxxxxxxxxxxxxxxxxxxxxxxxxxxxxxxx 
.................... //32 led: sang dan roi tat dan tu trong ra 
.................... //xxxxxxxxxxxxxxxxxxxxxxxxxxxxxxxxxxxxxxxxxxxx 
.................... void sang_tat_dan_trong_ra_32led(unsigned int8 dl,chondelay) 
.................... {   
....................    if (dem_led<16) 
....................    {    
....................       xuat_32led_don_2word(zp,zt);  
....................       zp= (zp>>1)+0x8000;  
....................       zt= (zt<<1)+1; 
....................       delay_chon(dl,chondelay); 
....................    } 
....................    else  if (dem_led<32) 
....................    {   
....................       xuat_32led_don_2word(zp,zt); 
....................       zp= (zp>>1);  
....................       zt= (zt<<1); 
....................       delay_chon(dl,chondelay); 
....................     } 
....................    else reset_toan_bo_bien(); 
....................          
.................... }    
.................... //xxxxxxxxxxxxxxxxxxxxxxxxxxxxxxxxxxxxxxxxxxxx 
.................... //32 led: 2nhom 16 led sang dan roi tat dan tu phai sang trai 
.................... //xxxxxxxxxxxxxxxxxxxxxxxxxxxxxxxxxxxxxxxxxxxx 
.................... void sang_tat_dan_phai_sang_trai_2x16led(unsigned int8 dl,chondelay) 
.................... {   
....................    if (dem_led<16) 
*
0692:  MOVF   3E,W
0694:  SUBLW  0F
0696:  BNC   06C6
....................    {    
....................       xuat_32led_don_2word(zp,zp); 
0698:  MOVFF  35,77
069C:  MOVFF  34,76
06A0:  MOVFF  35,79
06A4:  MOVFF  34,78
06A8:  RCALL  02A6
....................       zp= (zp>>1)+0x8000; 
06AA:  BCF    FD8.0
06AC:  RRCF   35,W
06AE:  MOVWF  x6F
06B0:  RRCF   34,W
06B2:  MOVWF  34
06B4:  MOVLW  80
06B6:  ADDWF  x6F,W
06B8:  MOVWF  35
....................       delay_chon(dl,chondelay); 
06BA:  MOVFF  6C,6E
06BE:  MOVFF  6D,6F
06C2:  RCALL  049A
....................    } 
06C4:  BRA    06F2
....................    else  if (dem_led<32) 
06C6:  MOVF   3E,W
06C8:  SUBLW  1F
06CA:  BNC   06F0
....................    {   
....................       xuat_32led_don_2word(zp,zp); 
06CC:  MOVFF  35,77
06D0:  MOVFF  34,76
06D4:  MOVFF  35,79
06D8:  MOVFF  34,78
06DC:  RCALL  02A6
....................       zp= (zp>>1); 
06DE:  BCF    FD8.0
06E0:  RRCF   35,F
06E2:  RRCF   34,F
....................       delay_chon(dl,chondelay); 
06E4:  MOVFF  6C,6E
06E8:  MOVFF  6D,6F
06EC:  RCALL  049A
....................     } 
06EE:  BRA    06F2
....................    else reset_toan_bo_bien(); 
06F0:  RCALL  030A
06F2:  RETURN 0
....................        
.................... }    
.................... //xxxxxxxxxxxxxxxxxxxxxxxxxxxxxxxxxxxxxxxxxxxx 
.................... //32 led: 2nhom 16 led sang dan roi tat dan tu trai sang phai 
.................... //xxxxxxxxxxxxxxxxxxxxxxxxxxxxxxxxxxxxxxxxxxxx 
.................... void sang_tat_dan_trai_sang_phai_2x16led(unsigned int8 dl,chondelay) 
.................... {   
....................    if (dem_led<16) 
....................    {    
....................       xuat_32led_don_2word(zt,zt);   
....................       zt= (zt<<1)+1; 
....................       delay_chon(dl,chondelay); 
....................    } 
....................    else  if (dem_led<32) 
....................    {   
....................       xuat_32led_don_2word(zt,zt); 
....................       zt= (zt<<1); 
....................       delay_chon(dl,chondelay); 
....................     } 
....................    else reset_toan_bo_bien(); 
....................          
.................... }    
.................... //xxxxxxxxxxxxxxxxxxxxxxxxxxxxxxxxxxxxxxxxxxxx 
.................... //32 led: sang dan roi tat dan tu phai sang trai 
.................... //xxxxxxxxxxxxxxxxxxxxxxxxxxxxxxxxxxxxxxxxxxxx 
.................... void sang_tat_dan_pst_32led(unsigned int8 dl,chondelay) 
.................... {         
....................    if (dem_led<32) 
*
0612:  MOVF   3E,W
0614:  SUBLW  1F
0616:  BNC   0660
....................    {   
....................       xuat_32led_don_1dw(y); 
0618:  MOVFF  1F,71
061C:  MOVFF  1E,70
0620:  MOVFF  1D,6F
0624:  MOVFF  1C,6E
0628:  RCALL  02CA
....................       y= (y<<1)+1; 
062A:  BCF    FD8.0
062C:  RLCF   1C,W
062E:  MOVWF  x6F
0630:  RLCF   1D,W
0632:  MOVWF  x70
0634:  RLCF   1E,W
0636:  MOVWF  x71
0638:  RLCF   1F,W
063A:  MOVWF  x72
063C:  MOVLW  01
063E:  ADDWF  x6F,W
0640:  MOVWF  1C
0642:  MOVLW  00
0644:  ADDWFC x70,W
0646:  MOVWF  1D
0648:  MOVLW  00
064A:  ADDWFC x71,W
064C:  MOVWF  1E
064E:  MOVLW  00
0650:  ADDWFC x72,W
0652:  MOVWF  1F
....................       delay_chon(dl,chondelay); 
0654:  MOVFF  6C,6E
0658:  MOVFF  6D,6F
065C:  RCALL  049A
....................    } 
065E:  BRA    0690
....................    else  if (dem_led<64) 
0660:  MOVF   3E,W
0662:  SUBLW  3F
0664:  BNC   068E
....................    {   
....................       xuat_32led_don_1dw(y);    
0666:  MOVFF  1F,71
066A:  MOVFF  1E,70
066E:  MOVFF  1D,6F
0672:  MOVFF  1C,6E
0676:  RCALL  02CA
....................       y= (y<<1);  
0678:  BCF    FD8.0
067A:  RLCF   1C,F
067C:  RLCF   1D,F
067E:  RLCF   1E,F
0680:  RLCF   1F,F
....................       delay_chon(dl,chondelay); 
0682:  MOVFF  6C,6E
0686:  MOVFF  6D,6F
068A:  RCALL  049A
....................    }  
068C:  BRA    0690
....................    else reset_toan_bo_bien(); 
068E:  RCALL  030A
0690:  RETURN 0
....................  
.................... }     
.................... //xxxxxxxxxxxxxxxxxxxxxxxxxxxxxxxxxxxxxxxxxxxx 
.................... //32 led: sang dan roi tat dan tu trai sang phai 
.................... //xxxxxxxxxxxxxxxxxxxxxxxxxxxxxxxxxxxxxxxxxxxx 
.................... void sang_tat_dan_tsp_32led(unsigned int8 dl,chondelay) 
.................... {            
....................       if (dem_led<32) 
....................       {   
....................          xuat_32led_don_1dw(y); 
....................          y= (y>>1)+0x80000000;  
....................          delay_chon(dl,chondelay);       
....................       } 
....................       else 
....................       if (dem_led<64) 
....................       {   
....................          xuat_32led_don_1dw(y);  
....................          y= (y>>1); 
....................          delay_chon(dl,chondelay); 
....................       }  
....................       else reset_toan_bo_bien(); 
....................      
.................... }          
.................... //xxxxxxxxxxxxxxxxxxxxxxxxxxxxxxxxxxxxxxxxxxxx 
.................... //32 led: diem sang di chueyn tu phai sang trai 
.................... //xxxxxxxxxxxxxxxxxxxxxxxxxxxxxxxxxxxxxxxxxxxx 
.................... void diem_sang_di_chuyen_pst_32led(unsigned int8 dl,chondelay) 
.................... {         
....................    if (dem_led==0) 
....................    {   
....................       y=1; 
....................       xuat_32led_don_1dw(y); 
....................       y= (y<<1); 
....................       delay_chon(dl,chondelay); 
....................    } 
....................    else  if (dem_led<33) 
....................    {   
....................       xuat_32led_don_1dw(y);    
....................       y= (y<<1);  
....................       delay_chon(dl,chondelay); 
....................    }  
....................    else  reset_toan_bo_bien(); 
.................... }     
....................  
.................... //xxxxxxxxxxxxxxxxxxxxxxxxxxxxxxxxxxxxxxxxxxxx 
.................... //32 led: diem sang di chueyn tu trai sang phai 
.................... //xxxxxxxxxxxxxxxxxxxxxxxxxxxxxxxxxxxxxxxxxxxx 
.................... void diem_sang_di_chuyen_tsp_32led(unsigned int8 dl,chondelay) 
.................... {         
....................    if (dem_led==0) 
....................    {   
....................       y=0x80000000; 
....................       xuat_32led_don_1dw(y); 
....................       y= (y>>1); 
....................       delay_chon(dl,chondelay); 
....................    } 
....................    else  if (dem_led<33) 
....................    {   
....................       xuat_32led_don_1dw(y);    
....................       y= (y>>1);  
....................       delay_chon(dl,chondelay); 
....................    }  
....................    else reset_toan_bo_bien(); 
....................  
.................... }  
.................... //xxxxxxxxxxxxxxxxxxxxxxxxxxxxxxxxxxxxxxxxxxxx 
.................... //32 led: sang don  phai sang trai 
.................... //xxxxxxxxxxxxxxxxxxxxxxxxxxxxxxxxxxxxxxxxxxxx 
.................... void sang_don_pst_32led(unsigned int8 dl,chondelay) 
.................... {        
....................    if(i32>0) 
*
0590:  BTFSC  3F.7
0592:  BRA    060E
0594:  MOVF   3F,W
0596:  SUBLW  00
0598:  BC    060E
....................    { 
....................       if(j32<i32) 
059A:  MOVF   40,W
059C:  XORLW  80
059E:  MOVWF  00
05A0:  MOVF   3F,W
05A2:  XORLW  80
05A4:  SUBWF  00,W
05A6:  BC    05E8
....................       { 
....................          y = y_codinh|yp_chay; 
05A8:  MOVF   28,W
05AA:  IORWF  20,W
05AC:  MOVWF  1C
05AE:  MOVF   29,W
05B0:  IORWF  21,W
05B2:  MOVWF  1D
05B4:  MOVF   2A,W
05B6:  IORWF  22,W
05B8:  MOVWF  1E
05BA:  MOVF   2B,W
05BC:  IORWF  23,W
05BE:  MOVWF  1F
....................          xuat_32led_don_1dw(y); 
05C0:  MOVFF  1F,71
05C4:  MOVFF  1E,70
05C8:  MOVFF  1D,6F
05CC:  MOVFF  1C,6E
05D0:  RCALL  02CA
....................          delay_chon(dl,chondelay);        
05D2:  MOVFF  6C,6E
05D6:  MOVFF  6D,6F
05DA:  RCALL  049A
....................          yp_chay = yp_chay <<1; 
05DC:  BCF    FD8.0
05DE:  RLCF   20,F
05E0:  RLCF   21,F
05E2:  RLCF   22,F
05E4:  RLCF   23,F
....................          j32++; 
05E6:  INCF   40,F
....................       } 
....................       if (j32==i32)  
05E8:  MOVF   3F,W
05EA:  SUBWF  40,W
05EC:  BNZ   060C
....................       { 
....................          i32--; 
05EE:  DECF   3F,F
....................          j32=0;          
05F0:  CLRF   40
....................          y_codinh=y; 
05F2:  MOVFF  1F,2B
05F6:  MOVFF  1E,2A
05FA:  MOVFF  1D,29
05FE:  MOVFF  1C,28
....................          yp_chay = 1; 
0602:  CLRF   23
0604:  CLRF   22
0606:  CLRF   21
0608:  MOVLW  01
060A:  MOVWF  20
....................       } 
....................    } 
060C:  BRA    0610
....................    else reset_toan_bo_bien(); 
060E:  RCALL  030A
0610:  RETURN 0
.................... }    
.................... //xxxxxxxxxxxxxxxxxxxxxxxxxxxxxxxxxxxxxxxxxxxx 
.................... //32 led: sang don  phai sang trai 
.................... //xxxxxxxxxxxxxxxxxxxxxxxxxxxxxxxxxxxxxxxxxxxx 
.................... void sang_don_tsp_32led(unsigned int8 dl,chondelay) 
.................... {        
....................    if(i32>0) 
....................    { 
....................       if(j32<i32) 
....................       { 
....................          y = y_codinh|yt_chay; 
....................          xuat_32led_don_1dw(y); 
....................          delay_chon(dl,chondelay); 
....................          yt_chay = yt_chay >>1; 
....................          j32++; 
....................       } 
....................       if (j32==i32)  
....................       { 
....................          i32--; 
....................          j32=0;          
....................          y_codinh=y; 
....................          yt_chay = 0x80000000; 
....................       } 
....................    } 
....................    else reset_toan_bo_bien(); 
....................  
.................... }   
.................... //xxxxxxxxxxxxxxxxxxxxxxxxxxxxxxxxxxxxxxxxxxxx 
.................... //32 led: sang don  tu ngoai vao 
.................... //xxxxxxxxxxxxxxxxxxxxxxxxxxxxxxxxxxxxxxxxxxxx 
.................... void sang_don_tnt_32led(unsigned int8 dl,chondelay) 
.................... {        
....................    if(i16>0) 
....................    { 
....................       if(j16<i16) 
....................       { 
....................          zp = zp_codinh|zp_chay_p; 
....................          zt = zt_codinh|zt_chay_t; 
....................          xuat_32led_don_2word(zt,zp); 
....................          delay_chon(dl,chondelay); 
....................  
....................          zp_chay_p = zp_chay_p <<1;          
....................          zt_chay_t = zt_chay_t >>1; 
....................          j16++; 
....................       } 
....................       if (j16==i16)  
....................       { 
....................          i16--; 
....................          j16=0;          
....................          zt_codinh=zt;  zp_codinh=zp;          
....................          zp_chay_p = 1;   zt_chay_t = 0x8000; 
....................       } 
....................    } 
....................    else reset_toan_bo_bien(); 
....................  
.................... }    
....................  
.................... //xxxxxxxxxxxxxxxxxxxxxxxxxxxxxxxxxxxxxxxxxxxx 
.................... //32 led: sang don  tu ngoai vao 
.................... //xxxxxxxxxxxxxxxxxxxxxxxxxxxxxxxxxxxxxxxxxxxx 
.................... void sang_don_ttr_32led(unsigned int8 dl,chondelay) 
.................... {        
....................    if(i16>0) 
....................    { 
....................       if(j16<i16) 
....................       { 
....................          zp = zp_codinh|zp_chay_t; 
....................          zt = zt_codinh|zt_chay_p; 
....................          xuat_32led_don_2word(zt,zp); 
....................          delay_chon(dl,chondelay); 
....................          zp_chay_t = zp_chay_t >>1;          
....................          zt_chay_p = zt_chay_p <<1; 
....................          j16++; 
....................       } 
....................       if (j16==i16)  
....................       { 
....................          i16--; 
....................          j16=0;          
....................          zt_codinh=zt;   
....................          zp_codinh=zp; 
....................          zp_chay_t = 0x8000;   zt_chay_p = 1; 
....................       } 
....................    } 
....................    else reset_toan_bo_bien(); 
.................... }    
....................  
.................... #include "18F4550.h" 
.................... //////////// Standard Header file for the PIC18F4550 device //////////////// 
.................... /////////////////////////////////////////////////////////////////////////// 
.................... ////        (C) Copyright 1996, 2014 Custom Computer Services          //// 
.................... //// This source code may only be used by licensed users of the CCS C  //// 
.................... //// compiler.  This source code may only be distributed to other      //// 
.................... //// licensed users of the CCS C compiler.  No other use, reproduction //// 
.................... //// or distribution is permitted without written permission.          //// 
.................... //// Derivative programs created using this software in object code    //// 
.................... //// form are not restricted in any way.                               //// 
.................... /////////////////////////////////////////////////////////////////////////// 
.................... #device PIC18F4550 
....................  
.................... #list 
....................  
....................  
.................... unsigned int16 dem = 0; 
.................... int16 temp = 0; 
.................... unsigned int flag=1; 
.................... int8 tt = 0; 
....................  
....................  
.................... void phim_on() { 
....................    if(!input(on)){ 
*
0080:  BSF    F93.5
0082:  BTFSC  F81.5
0084:  BRA    0098
....................       delay_ms(20); 
0086:  MOVLW  14
0088:  MOVWF  x71
008A:  RCALL  005A
....................       while (!input(on)) 
008C:  BSF    F93.5
008E:  BTFSC  F81.5
0090:  BRA    0098
....................       flag = 1; 
0092:  MOVLW  01
0094:  MOVWF  x62
0096:  BRA    008C
....................       //xuat_32led_don_4byte(0xff,0xff,0xff,0xff); 
....................    } 
0098:  GOTO   07E6 (RETURN)
.................... } 
....................  
....................  
....................  
.................... void phim_off() { 
....................    if(!input(off)){ 
009C:  BSF    F93.4
009E:  BTFSC  F81.4
00A0:  BRA    00B2
....................       delay_ms(20); 
00A2:  MOVLW  14
00A4:  MOVWF  x71
00A6:  RCALL  005A
....................       while (!input(off)) 
00A8:  BSF    F93.4
00AA:  BTFSC  F81.4
00AC:  BRA    00B2
....................       flag = 0; 
00AE:  CLRF   x62
00B0:  BRA    00A8
....................       //xuat_32led_don_4byte(0,0,0,0); 
....................    } 
00B2:  GOTO   07E8 (RETURN)
.................... } 
....................  
....................  
.................... void main() 
*
06F4:  CLRF   FF8
06F6:  BCF    FD0.7
06F8:  BSF    F93.1
06FA:  BSF    F93.0
06FC:  MOVLW  31
06FE:  MOVWF  FC8
0700:  MOVLW  28
0702:  MOVWF  FC6
0704:  BSF    FC7.7
0706:  BCF    FC7.6
0708:  CLRF   06
070A:  CLRF   0D
070C:  CLRF   0E
070E:  CLRF   0F
0710:  CLRF   10
0712:  CLRF   19
0714:  CLRF   1A
0716:  CLRF   1B
0718:  CLRF   1F
071A:  CLRF   1E
071C:  CLRF   1D
071E:  CLRF   1C
0720:  CLRF   23
0722:  CLRF   22
0724:  CLRF   21
0726:  MOVLW  01
0728:  MOVWF  20
072A:  MOVLW  80
072C:  MOVWF  27
072E:  CLRF   26
0730:  CLRF   25
0732:  CLRF   24
0734:  CLRF   2B
0736:  CLRF   2A
0738:  CLRF   29
073A:  CLRF   28
073C:  MOVWF  2F
073E:  CLRF   2E
0740:  CLRF   31
0742:  MOVLW  01
0744:  MOVWF  30
0746:  CLRF   33
0748:  CLRF   32
074A:  MOVLW  80
074C:  MOVWF  37
074E:  CLRF   36
0750:  CLRF   39
0752:  MOVLW  01
0754:  MOVWF  38
0756:  CLRF   3B
0758:  CLRF   3A
075A:  CLRF   3D
075C:  CLRF   3C
075E:  CLRF   3E
0760:  MOVLW  20
0762:  MOVWF  3F
0764:  CLRF   40
0766:  MOVLW  01
0768:  MOVWF  41
076A:  MOVLW  10
076C:  MOVWF  42
076E:  CLRF   43
0770:  CLRF   47
0772:  CLRF   46
0774:  CLRF   45
0776:  MOVLW  01
0778:  MOVWF  44
077A:  CLRF   4B
077C:  CLRF   4A
077E:  CLRF   49
0780:  MOVWF  48
0782:  SETF   4F
0784:  SETF   4E
0786:  SETF   4D
0788:  MOVLW  FE
078A:  MOVWF  4C
078C:  MOVLW  80
078E:  MOVWF  53
0790:  CLRF   52
0792:  CLRF   51
0794:  CLRF   50
0796:  MOVWF  57
0798:  CLRF   56
079A:  CLRF   55
079C:  CLRF   54
079E:  MOVLW  7F
07A0:  MOVWF  5B
07A2:  SETF   5A
07A4:  SETF   59
07A6:  SETF   58
07A8:  MOVLW  01
07AA:  MOVWF  5C
07AC:  MOVWF  5D
07AE:  CLRF   5F
07B0:  CLRF   5E
07B2:  CLRF   x61
07B4:  CLRF   x60
07B6:  MOVWF  x62
07B8:  CLRF   x63
07BA:  MOVF   FC1,W
07BC:  ANDLW  C0
07BE:  IORLW  0F
07C0:  MOVWF  FC1
07C2:  MOVLW  07
07C4:  MOVWF  FB4
07C6:  SETF   11
07C8:  SETF   12
07CA:  SETF   13
07CC:  SETF   14
07CE:  SETF   15
07D0:  SETF   16
07D2:  SETF   17
07D4:  SETF   18
.................... { 
....................    setup_timer_0(T0_EXT_H_TO_L|T0_DIV_1); 
07D6:  MOVLW  B8
07D8:  MOVWF  FD5
....................    set_timer0(0); 
07DA:  CLRF   FD7
07DC:  CLRF   FD6
....................    set_up_port_ic_chot(); 
07DE:  BRA    003C
....................    set_tris_b(0x3c); 
07E0:  MOVLW  3C
07E2:  MOVWF  F93
....................    while(TRUE) 
....................    { 
....................       phim_on(); 
07E4:  BRA    0080
....................       phim_off(); 
07E6:  BRA    009C
....................       if (flag==1) { 
07E8:  DECFSZ x62,W
07EA:  BRA    0854
....................          if (temp != get_timer0()) { 
07EC:  MOVF   FD6,W
07EE:  MOVFF  FD7,03
07F2:  SUBWF  x60,W
07F4:  BNZ   07FC
07F6:  MOVF   03,W
07F8:  SUBWF  x61,W
07FA:  BZ    0852
....................             int16 temp1 = get_timer0(); 
....................             int16 delta = temp1 - temp; 
07FC:  MOVF   FD6,W
07FE:  MOVWF  x64
0800:  MOVFF  FD7,65
0804:  MOVF   x60,W
0806:  SUBWF  x64,W
0808:  MOVWF  x66
080A:  MOVF   x61,W
080C:  SUBWFB x65,W
080E:  MOVWF  x67
....................             temp = temp1; 
0810:  MOVFF  65,61
0814:  MOVFF  64,60
....................             dem = dem+delta; 
0818:  MOVF   x66,W
081A:  ADDWF  5E,F
081C:  MOVF   x67,W
081E:  ADDWFC 5F,F
....................             if(dem>=1000) {set_timer0(0); dem=1000; temp = 1000; delta = 0;} 
0820:  MOVF   5F,W
0822:  SUBLW  02
0824:  BC    0848
0826:  XORLW  FF
0828:  BNZ   0830
082A:  MOVF   5E,W
082C:  SUBLW  E7
082E:  BC    0848
0830:  CLRF   FD7
0832:  CLRF   FD6
0834:  MOVLW  03
0836:  MOVWF  5F
0838:  MOVLW  E8
083A:  MOVWF  5E
083C:  MOVLW  03
083E:  MOVWF  x61
0840:  MOVLW  E8
0842:  MOVWF  x60
0844:  CLRF   x67
0846:  CLRF   x66
....................             xuat_4led_7doan_giaima_xoa_so0(dem); 
0848:  MOVFF  5F,6D
084C:  MOVFF  5E,6C
0850:  RCALL  017C
....................          } 
....................       } 
0852:  BRA    08AA
....................       else 
....................       { 
....................             if (temp != get_timer0()) { 
0854:  MOVF   FD6,W
0856:  MOVFF  FD7,03
085A:  SUBWF  x60,W
085C:  BNZ   0864
085E:  MOVF   03,W
0860:  SUBWF  x61,W
0862:  BZ    08AA
....................             int16 temp1 = get_timer0(); 
....................             int16 delta = temp1 - temp; 
0864:  MOVF   FD6,W
0866:  MOVWF  x68
0868:  MOVFF  FD7,69
086C:  MOVF   x60,W
086E:  SUBWF  x68,W
0870:  MOVWF  x6A
0872:  MOVF   x61,W
0874:  SUBWFB x69,W
0876:  MOVWF  x6B
....................             temp = temp1; 
0878:  MOVFF  69,61
087C:  MOVFF  68,60
....................             if(dem == 0) {set_timer0(0); dem=0; temp =0; delta = 0;} 
0880:  MOVF   5E,F
0882:  BNZ   0898
0884:  MOVF   5F,F
0886:  BNZ   0898
0888:  CLRF   FD7
088A:  CLRF   FD6
088C:  CLRF   5F
088E:  CLRF   5E
0890:  CLRF   x61
0892:  CLRF   x60
0894:  CLRF   x6B
0896:  CLRF   x6A
....................             dem = dem-delta; 
0898:  MOVF   x6A,W
089A:  SUBWF  5E,F
089C:  MOVF   x6B,W
089E:  SUBWFB 5F,F
....................             xuat_4led_7doan_giaima_xoa_so0(dem); 
08A0:  MOVFF  5F,6D
08A4:  MOVFF  5E,6C
08A8:  RCALL  017C
....................          } 
....................       } 
....................       tt = ttct_td; 
08AA:  MOVFF  41,63
....................       if(tt==1) sang_tat_32led(10,0); 
08AE:  DECFSZ x63,W
08B0:  BRA    08BA
08B2:  MOVLW  0A
08B4:  MOVWF  x6C
08B6:  CLRF   x6D
08B8:  RCALL  04AE
....................       if(tt==2) sang_tat_dan_ngoai_vao_32led(10,0); 
08BA:  MOVF   x63,W
08BC:  SUBLW  02
08BE:  BNZ   08C8
08C0:  MOVLW  0A
08C2:  MOVWF  x6C
08C4:  CLRF   x6D
08C6:  RCALL  0512
....................       if(tt==3) sang_don_pst_32led(10,0); 
08C8:  MOVF   x63,W
08CA:  SUBLW  03
08CC:  BNZ   08D6
08CE:  MOVLW  0A
08D0:  MOVWF  x6C
08D2:  CLRF   x6D
08D4:  RCALL  0590
....................       if(tt==4) sang_tat_dan_pst_32led(10,0); 
08D6:  MOVF   x63,W
08D8:  SUBLW  04
08DA:  BNZ   08E4
08DC:  MOVLW  0A
08DE:  MOVWF  x6C
08E0:  CLRF   x6D
08E2:  RCALL  0612
....................       if(tt==5) sang_tat_dan_phai_sang_trai_2x16led(10,0); 
08E4:  MOVF   x63,W
08E6:  SUBLW  05
08E8:  BNZ   08F2
08EA:  MOVLW  0A
08EC:  MOVWF  x6C
08EE:  CLRF   x6D
08F0:  RCALL  0692
....................       if(tt==6) sang_don_pst_32led(10,0); 
08F2:  MOVF   x63,W
08F4:  SUBLW  06
08F6:  BNZ   0900
08F8:  MOVLW  0A
08FA:  MOVWF  x6C
08FC:  CLRF   x6D
08FE:  RCALL  0590
....................       if(tt==7) sang_don_pst_32led(10,0); 
0900:  MOVF   x63,W
0902:  SUBLW  07
0904:  BNZ   090E
0906:  MOVLW  0A
0908:  MOVWF  x6C
090A:  CLRF   x6D
090C:  RCALL  0590
....................       if(tt==8) sang_tat_32led(10,0); 
090E:  MOVF   x63,W
0910:  SUBLW  08
0912:  BNZ   091C
0914:  MOVLW  0A
0916:  MOVWF  x6C
0918:  CLRF   x6D
091A:  RCALL  04AE
....................       if(tt==9) sang_tat_dan_ngoai_vao_32led(10,0); 
091C:  MOVF   x63,W
091E:  SUBLW  09
0920:  BNZ   092A
0922:  MOVLW  0A
0924:  MOVWF  x6C
0926:  CLRF   x6D
0928:  RCALL  0512
....................       if(tt==10) sang_don_pst_32led(10,0); 
092A:  MOVF   x63,W
092C:  SUBLW  0A
092E:  BNZ   0938
0930:  MOVLW  0A
0932:  MOVWF  x6C
0934:  CLRF   x6D
0936:  RCALL  0590
....................       if(tt==11) sang_tat_dan_pst_32led(10,0); 
0938:  MOVF   x63,W
093A:  SUBLW  0B
093C:  BNZ   0946
093E:  MOVLW  0A
0940:  MOVWF  x6C
0942:  CLRF   x6D
0944:  RCALL  0612
....................       if(tt==12) sang_tat_dan_phai_sang_trai_2x16led(10,0); 
0946:  MOVF   x63,W
0948:  SUBLW  0C
094A:  BNZ   0954
094C:  MOVLW  0A
094E:  MOVWF  x6C
0950:  CLRF   x6D
0952:  RCALL  0692
....................       if(tt==13) sang_don_pst_32led(10,0); 
0954:  MOVF   x63,W
0956:  SUBLW  0D
0958:  BNZ   0962
095A:  MOVLW  0A
095C:  MOVWF  x6C
095E:  CLRF   x6D
0960:  RCALL  0590
....................       if(tt==14) sang_don_pst_32led(10,0); 
0962:  MOVF   x63,W
0964:  SUBLW  0E
0966:  BNZ   0970
0968:  MOVLW  0A
096A:  MOVWF  x6C
096C:  CLRF   x6D
096E:  RCALL  0590
....................       if(tt==15) sang_don_pst_32led(10,0); 
0970:  MOVF   x63,W
0972:  SUBLW  0F
0974:  BNZ   097E
0976:  MOVLW  0A
0978:  MOVWF  x6C
097A:  CLRF   x6D
097C:  RCALL  0590
....................       if(tt>15) ttct_td =1; 
097E:  MOVF   x63,W
0980:  SUBLW  0F
0982:  BC    0988
0984:  MOVLW  01
0986:  MOVWF  41
0988:  BRA    07E4
....................    } 
.................... } 
....................  
098A:  SLEEP 

Configuration Fuses:
   Word  1: CC27   PLL12 CPUDIV1 USBDIV HS FCMEN IESO
   Word  2: 1E3E   PUT BROWNOUT BORV21 VREGEN NOWDT WDT32768
   Word  3: 8700   CCP2C1 PBADEN LPT1OSC MCLR
   Word  4: 00A1   STVREN NOLVP ICSP2 NOXINST NODEBUG
   Word  5: C00F   NOPROTECT NOCPB NOCPD
   Word  6: E00F   NOWRT NOWRTC NOWRTB NOWRTD
   Word  7: 400F   NOEBTR NOEBTRB
